(dp1
S'output'
p2
S''
sS'layer'
p3
S'Framework'
p4
sS'code'
p5
S''
sS'snapshot'
p6
(dp7
sS'traceback'
p8
S'Traceback (most recent call last):\n  File "/home/ritvik/DatabasesLab/microblogging/web2py/gluon/main.py", line 446, in wsgibase\n    serve_controller(request, response, session)\n  File "/home/ritvik/DatabasesLab/microblogging/web2py/gluon/main.py", line 194, in serve_controller\n    run_view_in(response._view_environment)\n  File "/home/ritvik/DatabasesLab/microblogging/web2py/gluon/compileapp.py", line 711, in run_view_in\n    context=environment)\n  File "/home/ritvik/DatabasesLab/microblogging/web2py/gluon/template.py", line 797, in parse_template\n    return str(TemplateParser(text, context=context, path=path, lexers=lexers, delimiters=delimiters))\n  File "/home/ritvik/DatabasesLab/microblogging/web2py/gluon/template.py", line 319, in __init__\n    self.parse(text)\n  File "/home/ritvik/DatabasesLab/microblogging/web2py/gluon/template.py", line 684, in parse\n    self.include(top, value)\n  File "/home/ritvik/DatabasesLab/microblogging/web2py/gluon/template.py", line 462, in include\n    text = self._get_file_text(filename)\n  File "/home/ritvik/DatabasesLab/microblogging/web2py/gluon/template.py", line 446, in _get_file_text\n    filepath = self.path and os.path.join(self.path, filename) or filename\n  File "/usr/lib/python2.7/posixpath.py", line 75, in join\n    if b.startswith(\'/\'):\nAttributeError: \'XML\' object has no attribute \'startswith\'\n'
p9
s.