(dp1
S'output'
p2
S"<class 'urllib2.URLError'> <urlopen error Tunnel connection failed: 407 Proxy Authentication Required>"
p3
sS'layer'
p4
S'/home/ritvik/DatabasesLab/microblogging/web2py/applications/Assignment/controllers/default.py'
p5
sS'code'
p6
S'# -*- coding: utf-8 -*-\n# this file is released under public domain and you can use without limitations\n\n#########################################################################\n## This is a sample controller\n## - index is the default action of any application\n## - user is required for authentication and authorization\n## - download is for downloading files uploaded in the db (does streaming)\n## - api is an example of Hypermedia API support and access control\n#########################################################################\n\ndef index():\n    """\n    example action using the internationalization operator T and flash\n    rendered by views/default/index.html or views/generic.html\n\n    if you need a simple wiki simply replace the two lines below with:\n    return auth.wiki()\n    """\n    if not auth.user:\n        if request.cookies.has_key(\'mycookie\'):\n            value = request.cookies[\'mycookie\'].value\n            value = int(value)\n            auth.user = ((db(db.auth_user.id==value).select().first()).as_dict())\n            #redirect(URL(\'user\'))\n        else:\n            redirect(URL(\'user\'))\n    else:\n        response.cookies[\'mycookie\'] = auth.user.id\n        response.cookies[\'mycookie\'][\'expires\'] = 24 * 3600\n        response.cookies[\'mycookie\'][\'path\'] = \'/\'\n    row_list = news()\n    return dict(message=T(\'Hello World\'), row_list = row_list)\n\n\ndef user():\n    """\n    exposes:\n    http://..../[app]/default/user/login\n    http://..../[app]/default/user/logout\n    http://..../[app]/default/user/register\n    http://..../[app]/default/user/profile\n    http://..../[app]/default/user/retrieve_password\n    http://..../[app]/default/user/change_password\n    http://..../[app]/default/user/manage_users (requires membership in\n    use @auth.requires_login()\n        @auth.requires_membership(\'group name\')\n        @auth.requires_permission(\'read\',\'table name\',record_id)\n    to decorate functions that need access control\n    """\n    row_list = news()\n    return dict(form=auth(), row_list = row_list)\n\n\n@cache.action()\ndef download():\n    """\n    allows downloading of uploaded files\n    http://..../[app]/default/download/[filename]\n    """\n    return response.download(request, db)\n\n\ndef call():\n    """\n    exposes services. for example:\n    http://..../[app]/default/call/jsonrpc\n    decorate with @services.jsonrpc the functions to expose\n    supports xml, json, xmlrpc, jsonrpc, amfrpc, rss, csv\n    """\n    return service()\n\n\n@auth.requires_login() \ndef api():\n    """\n    this is example of API with access control\n    WEB2PY provides Hypermedia API (Collection+JSON) Experimental\n    """\n    from gluon.contrib.hypermedia import Collection\n    rules = {\n        \'<tablename>\': {\'GET\':{},\'POST\':{},\'PUT\':{},\'DELETE\':{}},\n        }\n    return Collection(db).process(request,response,rules)\n\ndef news():\n    """\n    fetch news from rss\n    """\n    from datetime import datetime\n    currentDay = datetime.now().day\n    currentMonth = datetime.now().month\n    currentYear = datetime.now().year\n    currentDate = str(currentDay) + \'_\' + str(currentMonth) + \'_\' + str(currentYear)\n    sel=[db.date_string[\'date_string\']]\n    row=db(db.date_string.id == 24).select(*sel).first() # note the *\n    storedDate = row.date_string\n    if storedDate != currentDate:\n        db(db.date_string.id == 24).update(date_string=currentDate)\n        db.commit()\n        feedparser = local_import(\'feedparser\')\n        from BeautifulSoup import BeautifulSoup\n        d = feedparser.parse(\'http://news.google.com/news?pz=1&cf=all&ned=in&hl=en&output=rss\')\n        for field in d[\'entries\']:\n            soup = BeautifulSoup(field[\'description\'])\n            tags=soup.findAll(\'img\')\n            image_link = tags[0][\'src\']\n            link = field[\'link\'].strip().split(\';\')[-1]\n            title = field[\'title\']\n            db.news.insert(title=title,link=link,image_link=image_link)\n        db.commit()\n    sel=[db.news[\'id\'], db.news[\'title\'], db.news[\'link\'], db.news[\'image_link\']]\n    rows = db(db.news.id > 0).select(*sel, orderby=~db.news.id, limitby=(0,10))\n\n    row_list = rows.as_list()\n    return row_list\n\ndef feed():\n    """\n    shows posts on a news\n    """\n    from datetime import datetime\n    news_id = request.vars.id\n    rows = db(db.posts.news_id == news_id).select(db.posts.ALL, orderby=(db.posts.upvotes-db.posts.downvotes - (db.posts.time_stamp)))\n    row_list = rows.as_list()\n    return dict(news_vars = request.vars, row_list = row_list)\n\ndef blog():\n    """\n    Writes Blog Post\n    """\n    db.posts.insert(user_id=auth.user.id, body=request.vars.blog, news_id=request.vars.id)\n    redirect(URL(\'default\',\'feed\',vars=dict(id=request.vars.id)))\n\nresponse._vars=response._caller(user)\n'
p7
sS'snapshot'
p8
(dp9
S'exception'
p10
(dp11
S'__module__'
p12
S"'urllib2'"
p13
sS'__getslice__'
p14
S"<method-wrapper '__getslice__' of URLError object>"
p15
sS'__str__'
p16
S"<bound method URLError.__str__ of URLError(error...n failed: 407 Proxy Authentication Required',),)>"
p17
sS'__reduce__'
p18
S'<built-in method __reduce__ of URLError object>'
p19
sS'__dict__'
p20
S"{'reason': error('Tunnel connection failed: 407 Proxy Authentication Required',)}"
p21
sS'__sizeof__'
p22
S'<built-in method __sizeof__ of URLError object>'
p23
sS'__weakref__'
p24
S'None'
p25
sS'__init__'
p26
S"<bound method URLError.__init__ of URLError(erro...n failed: 407 Proxy Authentication Required',),)>"
p27
sS'__setattr__'
p28
S"<method-wrapper '__setattr__' of URLError object>"
p29
sS'__reduce_ex__'
p30
S'<built-in method __reduce_ex__ of URLError object>'
p31
sS'__new__'
p32
S'<built-in method __new__ of type object>'
p33
sS'errno'
p34
S'None'
p35
sS'__format__'
p36
S'<built-in method __format__ of URLError object>'
p37
sS'__class__'
p38
S"<class 'urllib2.URLError'>"
p39
sS'filename'
p40
S'None'
p41
sS'__doc__'
p42
S'None'
p43
sS'__getitem__'
p44
S"<method-wrapper '__getitem__' of URLError object>"
p45
sS'__setstate__'
p46
S'<built-in method __setstate__ of URLError object>'
p47
sS'__getattribute__'
p48
S"<method-wrapper '__getattribute__' of URLError object>"
p49
sS'args'
p50
S"(error('Tunnel connection failed: 407 Proxy Authentication Required',),)"
p51
sS'reason'
p52
S"error('Tunnel connection failed: 407 Proxy Authentication Required',)"
p53
sS'__subclasshook__'
p54
S'<built-in method __subclasshook__ of type object>'
p55
sS'__unicode__'
p56
S'<built-in method __unicode__ of URLError object>'
p57
sS'strerror'
p58
S'None'
p59
sS'__delattr__'
p60
S"<method-wrapper '__delattr__' of URLError object>"
p61
sS'__repr__'
p62
S"<method-wrapper '__repr__' of URLError object>"
p63
sS'__hash__'
p64
S"<method-wrapper '__hash__' of URLError object>"
p65
ssS'evalue'
p66
S'<urlopen error Tunnel connection failed: 407 Proxy Authentication Required>'
p67
sS'request'
p68
cgluon.html
XML_unpickle
p69
(S'sr}\x00\x00<div><table><tr><td style="font-weight:bold;vertical-align:top;">ajax</td><td style="vertical-align:top;">:</td><td><div>False</div></td></tr><tr><td style="font-weight:bold;vertical-align:top;">application</td><td style="vertical-align:top;">:</td><td><div>Assignment</div></td></tr><tr><td style="font-weight:bold;vertical-align:top;">args</td><td style="vertical-align:top;">:</td><td><div><table><tr><td><div>login</div></td></tr></table></div></td></tr><tr><td style="font-weight:bold;vertical-align:top;">cid</td><td style="vertical-align:top;">:</td><td><div>None</div></td></tr><tr><td style="font-weight:bold;vertical-align:top;">client</td><td style="vertical-align:top;">:</td><td><div>127.0.0.1</div></td></tr><tr><td style="font-weight:bold;vertical-align:top;">controller</td><td style="vertical-align:top;">:</td><td><div>default</div></td></tr><tr><td style="font-weight:bold;vertical-align:top;">cookies</td><td style="vertical-align:top;">:</td><td><div><table><tr><td style="font-weight:bold;vertical-align:top;">expected_tab</td><td style="vertical-align:top;">:</td><td><div>facebook<table><tr><td style="font-weight:bold;vertical-align:top;">comment</td><td style="vertical-align:top;">:</td><td><div></div></td></tr><tr><td style="font-weight:bold;vertical-align:top;">domain</td><td style="vertical-align:top;">:</td><td><div></div></td></tr><tr><td style="font-weight:bold;vertical-align:top;">expires</td><td style="vertical-align:top;">:</td><td><div></div></td></tr><tr><td style="font-weight:bold;vertical-align:top;">httponly</td><td style="vertical-align:top;">:</td><td><div></div></td></tr><tr><td style="font-weight:bold;vertical-align:top;">max-age</td><td style="vertical-align:top;">:</td><td><div></div></td></tr><tr><td style="font-weight:bold;vertical-align:top;">path</td><td style="vertical-align:top;">:</td><td><div></div></td></tr><tr><td style="font-weight:bold;vertical-align:top;">secure</td><td style="vertical-align:top;">:</td><td><div></div></td></tr><tr><td style="font-weight:bold;vertical-align:top;">version</td><td style="vertical-align:top;">:</td><td><div></div></td></tr></table></div></td></tr><tr><td style="font-weight:bold;vertical-align:top;">login_tab</td><td style="vertical-align:top;">:</td><td><div>facebook<table><tr><td style="font-weight:bold;vertical-align:top;">comment</td><td style="vertical-align:top;">:</td><td><div></div></td></tr><tr><td style="font-weight:bold;vertical-align:top;">domain</td><td style="vertical-align:top;">:</td><td><div></div></td></tr><tr><td style="font-weight:bold;vertical-align:top;">expires</td><td style="vertical-align:top;">:</td><td><div></div></td></tr><tr><td style="font-weight:bold;vertical-align:top;">httponly</td><td style="vertical-align:top;">:</td><td><div></div></td></tr><tr><td style="font-weight:bold;vertical-align:top;">max-age</td><td style="vertical-align:top;">:</td><td><div></div></td></tr><tr><td style="font-weight:bold;vertical-align:top;">path</td><td style="vertical-align:top;">:</td><td><div></div></td></tr><tr><td style="font-weight:bold;vertical-align:top;">secure</td><td style="vertical-align:top;">:</td><td><div></div></td></tr><tr><td style="font-weight:bold;vertical-align:top;">version</td><td style="vertical-align:top;">:</td><td><div></div></td></tr></table></div></td></tr><tr><td style="font-weight:bold;vertical-align:top;">mycookie</td><td style="vertical-align:top;">:</td><td><div>1<table><tr><td style="font-weight:bold;vertical-align:top;">comment</td><td style="vertical-align:top;">:</td><td><div></div></td></tr><tr><td style="font-weight:bold;vertical-align:top;">domain</td><td style="vertical-align:top;">:</td><td><div></div></td></tr><tr><td style="font-weight:bold;vertical-align:top;">expires</td><td style="vertical-align:top;">:</td><td><div></div></td></tr><tr><td style="font-weight:bold;vertical-align:top;">httponly</td><td style="vertical-align:top;">:</td><td><div></div></td></tr><tr><td style="font-weight:bold;vertical-align:top;">max-age</td><td style="vertical-align:top;">:</td><td><div></div></td></tr><tr><td style="font-weight:bold;vertical-align:top;">path</td><td style="vertical-align:top;">:</td><td><div></div></td></tr><tr><td style="font-weight:bold;vertical-align:top;">secure</td><td style="vertical-align:top;">:</td><td><div></div></td></tr><tr><td style="font-weight:bold;vertical-align:top;">version</td><td style="vertical-align:top;">:</td><td><div></div></td></tr></table></div></td></tr><tr><td style="font-weight:bold;vertical-align:top;">session_id_admin</td><td style="vertical-align:top;">:</td><td><div>127.0.0.1-72b010fc-4a53-449b-a198-a2b505cc89db<table><tr><td style="font-weight:bold;vertical-align:top;">comment</td><td style="vertical-align:top;">:</td><td><div></div></td></tr><tr><td style="font-weight:bold;vertical-align:top;">domain</td><td style="vertical-align:top;">:</td><td><div></div></td></tr><tr><td style="font-weight:bold;vertical-align:top;">expires</td><td style="vertical-align:top;">:</td><td><div></div></td></tr><tr><td style="font-weight:bold;vertical-align:top;">httponly</td><td style="vertical-align:top;">:</td><td><div></div></td></tr><tr><td style="font-weight:bold;vertical-align:top;">max-age</td><td style="vertical-align:top;">:</td><td><div></div></td></tr><tr><td style="font-weight:bold;vertical-align:top;">path</td><td style="vertical-align:top;">:</td><td><div></div></td></tr><tr><td style="font-weight:bold;vertical-align:top;">secure</td><td style="vertical-align:top;">:</td><td><div></div></td></tr><tr><td style="font-weight:bold;vertical-align:top;">version</td><td style="vertical-align:top;">:</td><td><div></div></td></tr></table></div></td></tr><tr><td style="font-weight:bold;vertical-align:top;">session_id_assignment</td><td style="vertical-align:top;">:</td><td><div>127.0.0.1-a39b5be1-73ec-4194-884c-b6470ea256f7<table><tr><td style="font-weight:bold;vertical-align:top;">comment</td><td style="vertical-align:top;">:</td><td><div></div></td></tr><tr><td style="font-weight:bold;vertical-align:top;">domain</td><td style="vertical-align:top;">:</td><td><div></div></td></tr><tr><td style="font-weight:bold;vertical-align:top;">expires</td><td style="vertical-align:top;">:</td><td><div></div></td></tr><tr><td style="font-weight:bold;vertical-align:top;">httponly</td><td style="vertical-align:top;">:</td><td><div></div></td></tr><tr><td style="font-weight:bold;vertical-align:top;">max-age</td><td style="vertical-align:top;">:</td><td><div></div></td></tr><tr><td style="font-weight:bold;vertical-align:top;">path</td><td style="vertical-align:top;">:</td><td><div></div></td></tr><tr><td style="font-weight:bold;vertical-align:top;">secure</td><td style="vertical-align:top;">:</td><td><div></div></td></tr><tr><td style="font-weight:bold;vertical-align:top;">version</td><td style="vertical-align:top;">:</td><td><div></div></td></tr></table></div></td></tr><tr><td style="font-weight:bold;vertical-align:top;">session_id_examples</td><td style="vertical-align:top;">:</td><td><div>True<table><tr><td style="font-weight:bold;vertical-align:top;">comment</td><td style="vertical-align:top;">:</td><td><div></div></td></tr><tr><td style="font-weight:bold;vertical-align:top;">domain</td><td style="vertical-align:top;">:</td><td><div></div></td></tr><tr><td style="font-weight:bold;vertical-align:top;">expires</td><td style="vertical-align:top;">:</td><td><div></div></td></tr><tr><td style="font-weight:bold;vertical-align:top;">httponly</td><td style="vertical-align:top;">:</td><td><div></div></td></tr><tr><td style="font-weight:bold;vertical-align:top;">max-age</td><td style="vertical-align:top;">:</td><td><div></div></td></tr><tr><td style="font-weight:bold;vertical-align:top;">path</td><td style="vertical-align:top;">:</td><td><div></div></td></tr><tr><td style="font-weight:bold;vertical-align:top;">secure</td><td style="vertical-align:top;">:</td><td><div></div></td></tr><tr><td style="font-weight:bold;vertical-align:top;">version</td><td style="vertical-align:top;">:</td><td><div></div></td></tr></table></div></td></tr><tr><td style="font-weight:bold;vertical-align:top;">session_id_welcome</td><td style="vertical-align:top;">:</td><td><div>127.0.0.1-c1d95725-9c33-4c31-8233-02bd10ea798b<table><tr><td style="font-weight:bold;vertical-align:top;">comment</td><td style="vertical-align:top;">:</td><td><div></div></td></tr><tr><td style="font-weight:bold;vertical-align:top;">domain</td><td style="vertical-align:top;">:</td><td><div></div></td></tr><tr><td style="font-weight:bold;vertical-align:top;">expires</td><td style="vertical-align:top;">:</td><td><div></div></td></tr><tr><td style="font-weight:bold;vertical-align:top;">httponly</td><td style="vertical-align:top;">:</td><td><div></div></td></tr><tr><td style="font-weight:bold;vertical-align:top;">max-age</td><td style="vertical-align:top;">:</td><td><div></div></td></tr><tr><td style="font-weight:bold;vertical-align:top;">path</td><td style="vertical-align:top;">:</td><td><div></div></td></tr><tr><td style="font-weight:bold;vertical-align:top;">secure</td><td style="vertical-align:top;">:</td><td><div></div></td></tr><tr><td style="font-weight:bold;vertical-align:top;">version</td><td style="vertical-align:top;">:</td><td><div></div></td></tr></table></div></td></tr><tr><td style="font-weight:bold;vertical-align:top;">welcome_info_name</td><td style="vertical-align:top;">:</td><td><div>Ritvik%20Saraf<table><tr><td style="font-weight:bold;vertical-align:top;">comment</td><td style="vertical-align:top;">:</td><td><div></div></td></tr><tr><td style="font-weight:bold;vertical-align:top;">domain</td><td style="vertical-align:top;">:</td><td><div></div></td></tr><tr><td style="font-weight:bold;vertical-align:top;">expires</td><td style="vertical-align:top;">:</td><td><div></div></td></tr><tr><td style="font-weight:bold;vertical-align:top;">httponly</td><td style="vertical-align:top;">:</td><td><div></div></td></tr><tr><td style="font-weight:bold;vertical-align:top;">max-age</td><td style="vertical-align:top;">:</td><td><div></div></td></tr><tr><td style="font-weight:bold;vertical-align:top;">path</td><td style="vertical-align:top;">:</td><td><div></div></td></tr><tr><td style="font-weight:bold;vertical-align:top;">secure</td><td style="vertical-align:top;">:</td><td><div></div></td></tr><tr><td style="font-weight:bold;vertical-align:top;">version</td><td style="vertical-align:top;">:</td><td><div></div></td></tr></table></div></td></tr></table></div></td></tr><tr><td style="font-weight:bold;vertical-align:top;">env</td><td style="vertical-align:top;">:</td><td><div><table><tr><td style="font-weight:bold;vertical-align:top;">CONTENT_LENGTH</td><td style="vertical-align:top;">:</td><td><div>46</div></td></tr><tr><td style="font-weight:bold;vertical-align:top;">CONTENT_TYPE</td><td style="vertical-align:top;">:</td><td><div>application/x-www-form-urlencoded</div></td></tr><tr><td style="font-weight:bold;vertical-align:top;">HTTP_ACCEPT</td><td style="vertical-align:top;">:</td><td><div>text/html,application/xhtml+xml,application/xml;q=0.9,image/webp,*/*;q=0.8</div></td></tr><tr><td style="font-weight:bold;vertical-align:top;">HTTP_ACCEPT_ENCODING</td><td style="vertical-align:top;">:</td><td><div>gzip, deflate</div></td></tr><tr><td style="font-weight:bold;vertical-align:top;">HTTP_ACCEPT_LANGUAGE</td><td style="vertical-align:top;">:</td><td><div>en-GB,en-US;q=0.8,en;q=0.6</div></td></tr><tr><td style="font-weight:bold;vertical-align:top;">HTTP_CACHE_CONTROL</td><td style="vertical-align:top;">:</td><td><div>max-age=0</div></td></tr><tr><td style="font-weight:bold;vertical-align:top;">HTTP_CONNECTION</td><td style="vertical-align:top;">:</td><td><div>keep-alive</div></td></tr><tr><td style="font-weight:bold;vertical-align:top;">HTTP_CONTENT_LENGTH</td><td style="vertical-align:top;">:</td><td><div>46</div></td></tr><tr><td style="font-weight:bold;vertical-align:top;">HTTP_CONTENT_TYPE</td><td style="vertical-align:top;">:</td><td><div>application/x-www-form-urlencoded</div></td></tr><tr><td style="font-weight:bold;vertical-align:top;">HTTP_COOKIE</td><td style="vertical-align:top;">:</td><td><div>mycookie=1; session_id_examples=True; session_id_welcome=127.0.0.1-c1d95725-9c33-4c31-8233-02bd10ea798b; session_id_admin=127.0.0.1-72b010fc-4a53-449b-a198-a2b505cc89db; session_id_assignment=127.0.0.1-a39b5be1-73ec-4194-884c-b6470ea256f7; login_tab=facebook; expected_tab=facebook; welcome_info_name=Ritvik%20Saraf</div></td></tr><tr><td style="font-weight:bold;vertical-align:top;">HTTP_HOST</td><td style="vertical-align:top;">:</td><td><div>127.0.0.1:8000</div></td></tr><tr><td style="font-weight:bold;vertical-align:top;">HTTP_ORIGIN</td><td style="vertical-align:top;">:</td><td><div>http://supersample.rpxnow.com</div></td></tr><tr><td style="font-weight:bold;vertical-align:top;">HTTP_REFERER</td><td style="vertical-align:top;">:</td><td><div>http://supersample.rpxnow.com/redirect?loc=5eae66db6e462a2e4a5e646311db9283da737c47</div></td></tr><tr><td style="font-weight:bold;vertical-align:top;">HTTP_USER_AGENT</td><td style="vertical-align:top;">:</td><td><div>Mozilla/5.0 (X11; Linux x86_64) AppleWebKit/537.36 (KHTML, like Gecko) Chrome/41.0.2272.101 Safari/537.36</div></td></tr><tr><td style="font-weight:bold;vertical-align:top;">PATH_INFO</td><td style="vertical-align:top;">:</td><td><div>/Assignment/default/user/login</div></td></tr><tr><td style="font-weight:bold;vertical-align:top;">QUERY_STRING</td><td style="vertical-align:top;">:</td><td><div></div></td></tr><tr><td style="font-weight:bold;vertical-align:top;">REMOTE_ADDR</td><td style="vertical-align:top;">:</td><td><div>127.0.0.1</div></td></tr><tr><td style="font-weight:bold;vertical-align:top;">REMOTE_PORT</td><td style="vertical-align:top;">:</td><td><div>41270</div></td></tr><tr><td style="font-weight:bold;vertical-align:top;">REQUEST_METHOD</td><td style="vertical-align:top;">:</td><td><div>POST</div></td></tr><tr><td style="font-weight:bold;vertical-align:top;">SCRIPT_NAME</td><td style="vertical-align:top;">:</td><td><div></div></td></tr><tr><td style="font-weight:bold;vertical-align:top;">SERVER_NAME</td><td style="vertical-align:top;">:</td><td><div>ritvik-HP-Pavilion-15-Notebook-PC</div></td></tr><tr><td style="font-weight:bold;vertical-align:top;">SERVER_PORT</td><td style="vertical-align:top;">:</td><td><div>8000</div></td></tr><tr><td style="font-weight:bold;vertical-align:top;">SERVER_PROTOCOL</td><td style="vertical-align:top;">:</td><td><div>HTTP/1.1</div></td></tr><tr><td style="font-weight:bold;vertical-align:top;">SERVER_SOFTWARE</td><td style="vertical-align:top;">:</td><td><div>Rocket 1.2.6</div></td></tr><tr><td style="font-weight:bold;vertical-align:top;">app_folders</td><td style="vertical-align:top;">:</td><td><div>set([&#x27;/home/ritvik/DatabasesLab/microblogging/web2py/applications/examples/&#x27;, &#x27;/home/ritvik/DatabasesLab/microblogging/web2py/applications/Assignment/&#x27;, &#x27;/home/ritvik/DatabasesLab/microblogging/web2py/applications/welcome/&#x27;, &#x27;/home/ritvik/DatabasesLab/microblogging/web2py/applications/admin/&#x27;])</div></td></tr><tr><td style="font-weight:bold;vertical-align:top;">applications_parent</td><td style="vertical-align:top;">:</td><td><div>/home/ritvik/DatabasesLab/microblogging/web2py</div></td></tr><tr><td style="font-weight:bold;vertical-align:top;">cmd_args</td><td style="vertical-align:top;">:</td><td><div><table></table></div></td></tr><tr><td style="font-weight:bold;vertical-align:top;">cmd_options</td><td style="vertical-align:top;">:</td><td><div>&lt;Values at 0x7f261a1e77a0: {&#x27;verbose&#x27;: False, &#x27;ip&#x27;: &#x27;127.0.0.1&#x27;, &#x27;debuglevel&#x27;: 30, &#x27;with_scheduler&#x27;: False, &#x27;ips&#x27;: [&#x27;127.0.1.1&#x27;], &#x27;shutdown_timeout&#x27;: 5, &#x27;taskbar&#x27;: False, &#x27;with_coverage&#x27;: False, &#x27;scheduler_groups&#x27;: None, &#x27;port&#x27;: 8000, &#x27;maxthreads&#x27;: None, &#x27;softcron&#x27;: False, &#x27;server_name&#x27;: &#x27;ritvik-HP-Pavilion-15-Notebook-PC&#x27;, &#x27;bpython&#x27;: False, &#x27;nogui&#x27;: False, &#x27;pid_filename&#x27;: &#x27;httpserver.pid&#x27;, &#x27;extcron&#x27;: False, &#x27;runcron&#x27;: False, &#x27;run_system_tests&#x27;: False, &#x27;test&#x27;: None, &#x27;folder&#x27;: &#x27;/home/ritvik/DatabasesLab/microblogging/web2py&#x27;, &#x27;config&#x27;: &#x27;&#x27;, &#x27;minthreads&#x27;: None, &#x27;shell&#x27;: None, &#x27;run&#x27;: &#x27;&#x27;, &#x27;log_filename&#x27;: &#x27;httpserver.log&#x27;, &#x27;profiler_dir&#x27;: None, &#x27;args&#x27;: [&#x27;&#x27;], &#x27;socket_timeout&#x27;: 5, &#x27;ssl_ca_certificate&#x27;: None, &#x27;scheduler&#x27;: None, &#x27;interfaces&#x27;: None, &#x27;ssl_private_key&#x27;: &#x27;&#x27;, &#x27;gae&#x27;: None, &#x27;password&#x27;: &#x27;&lt;ask&gt;&#x27;, &#x27;request_queue_size&#x27;: 5, &#x27;ssl_certificate&#x27;: &#x27;&#x27;, &#x27;cronjob&#x27;: False, &#x27;numthreads&#x27;: None, &#x27;quiet&#x27;: False, &#x27;import_models&#x27;: False, &#x27;timeout&#x27;: 10, &#x27;plain&#x27;: False, &#x27;nobanner&#x27;: False}&gt;</div></td></tr><tr><td style="font-weight:bold;vertical-align:top;">content_length</td><td style="vertical-align:top;">:</td><td><div>46</div></td></tr><tr><td style="font-weight:bold;vertical-align:top;">content_type</td><td style="vertical-align:top;">:</td><td><div>application/x-www-form-urlencoded</div></td></tr><tr><td style="font-weight:bold;vertical-align:top;">db_sessions</td><td style="vertical-align:top;">:</td><td><div>set([])</div></td></tr><tr><td style="font-weight:bold;vertical-align:top;">debugging</td><td style="vertical-align:top;">:</td><td><div>True</div></td></tr><tr><td style="font-weight:bold;vertical-align:top;">gluon_parent</td><td style="vertical-align:top;">:</td><td><div>/home/ritvik/DatabasesLab/microblogging/web2py</div></td></tr><tr><td style="font-weight:bold;vertical-align:top;">http_accept</td><td style="vertical-align:top;">:</td><td><div>text/html,application/xhtml+xml,application/xml;q=0.9,image/webp,*/*;q=0.8</div></td></tr><tr><td style="font-weight:bold;vertical-align:top;">http_accept_encoding</td><td style="vertical-align:top;">:</td><td><div>gzip, deflate</div></td></tr><tr><td style="font-weight:bold;vertical-align:top;">http_accept_language</td><td style="vertical-align:top;">:</td><td><div>en-GB,en-US;q=0.8,en;q=0.6</div></td></tr><tr><td style="font-weight:bold;vertical-align:top;">http_cache_control</td><td style="vertical-align:top;">:</td><td><div>max-age=0</div></td></tr><tr><td style="font-weight:bold;vertical-align:top;">http_connection</td><td style="vertical-align:top;">:</td><td><div>keep-alive</div></td></tr><tr><td style="font-weight:bold;vertical-align:top;">http_content_length</td><td style="vertical-align:top;">:</td><td><div>46</div></td></tr><tr><td style="font-weight:bold;vertical-align:top;">http_content_type</td><td style="vertical-align:top;">:</td><td><div>application/x-www-form-urlencoded</div></td></tr><tr><td style="font-weight:bold;vertical-align:top;">http_cookie</td><td style="vertical-align:top;">:</td><td><div>mycookie=1; session_id_examples=True; session_id_welcome=127.0.0.1-c1d95725-9c33-4c31-8233-02bd10ea798b; session_id_admin=127.0.0.1-72b010fc-4a53-449b-a198-a2b505cc89db; session_id_assignment=127.0.0.1-a39b5be1-73ec-4194-884c-b6470ea256f7; login_tab=facebook; expected_tab=facebook; welcome_info_name=Ritvik%20Saraf</div></td></tr><tr><td style="font-weight:bold;vertical-align:top;">http_host</td><td style="vertical-align:top;">:</td><td><div>127.0.0.1:8000</div></td></tr><tr><td style="font-weight:bold;vertical-align:top;">http_origin</td><td style="vertical-align:top;">:</td><td><div>http://supersample.rpxnow.com</div></td></tr><tr><td style="font-weight:bold;vertical-align:top;">http_referer</td><td style="vertical-align:top;">:</td><td><div>http://supersample.rpxnow.com/redirect?loc=5eae66db6e462a2e4a5e646311db9283da737c47</div></td></tr><tr><td style="font-weight:bold;vertical-align:top;">http_user_agent</td><td style="vertical-align:top;">:</td><td><div>Mozilla/5.0 (X11; Linux x86_64) AppleWebKit/537.36 (KHTML, like Gecko) Chrome/41.0.2272.101 Safari/537.36</div></td></tr><tr><td style="font-weight:bold;vertical-align:top;">is_jython</td><td style="vertical-align:top;">:</td><td><div>False</div></td></tr><tr><td style="font-weight:bold;vertical-align:top;">is_pypy</td><td style="vertical-align:top;">:</td><td><div>False</div></td></tr><tr><td style="font-weight:bold;vertical-align:top;">is_source</td><td style="vertical-align:top;">:</td><td><div>True</div></td></tr><tr><td style="font-weight:bold;vertical-align:top;">local_hosts</td><td style="vertical-align:top;">:</td><td><div><table><tr><td><div>127.0.1.1</div></td></tr><tr><td><div>::1</div></td></tr><tr><td><div>ritvik-HP-Pavilion-15-Notebook-PC</div></td></tr><tr><td><div>::ffff:127.0.0.1</div></td></tr><tr><td><div>127.0.0.1</div></td></tr></table></div></td></tr><tr><td style="font-weight:bold;vertical-align:top;">path_info</td><td style="vertical-align:top;">:</td><td><div>/Assignment/default/user/login</div></td></tr><tr><td style="font-weight:bold;vertical-align:top;">query_string</td><td style="vertical-align:top;">:</td><td><div></div></td></tr><tr><td style="font-weight:bold;vertical-align:top;">remote_addr</td><td style="vertical-align:top;">:</td><td><div>127.0.0.1</div></td></tr><tr><td style="font-weight:bold;vertical-align:top;">remote_port</td><td style="vertical-align:top;">:</td><td><div>41270</div></td></tr><tr><td style="font-weight:bold;vertical-align:top;">request_method</td><td style="vertical-align:top;">:</td><td><div>POST</div></td></tr><tr><td style="font-weight:bold;vertical-align:top;">request_uri</td><td style="vertical-align:top;">:</td><td><div>/Assignment/default/user/login</div></td></tr><tr><td style="font-weight:bold;vertical-align:top;">script_name</td><td style="vertical-align:top;">:</td><td><div></div></td></tr><tr><td style="font-weight:bold;vertical-align:top;">server_name</td><td style="vertical-align:top;">:</td><td><div>ritvik-HP-Pavilion-15-Notebook-PC</div></td></tr><tr><td style="font-weight:bold;vertical-align:top;">server_port</td><td style="vertical-align:top;">:</td><td><div>8000</div></td></tr><tr><td style="font-weight:bold;vertical-align:top;">server_protocol</td><td style="vertical-align:top;">:</td><td><div>HTTP/1.1</div></td></tr><tr><td style="font-weight:bold;vertical-align:top;">server_software</td><td style="vertical-align:top;">:</td><td><div>Rocket 1.2.6</div></td></tr><tr><td style="font-weight:bold;vertical-align:top;">web2py_path</td><td style="vertical-align:top;">:</td><td><div>/home/ritvik/DatabasesLab/microblogging/web2py</div></td></tr><tr><td style="font-weight:bold;vertical-align:top;">web2py_version</td><td style="vertical-align:top;">:</td><td><div>2.9.12-stable+timestamp.2015.01.17.06.11.03</div></td></tr><tr><td style="font-weight:bold;vertical-align:top;">wsgi.errors</td><td style="vertical-align:top;">:</td><td><div>&lt;open file &#x27;&lt;stderr&gt;&#x27;, mode &#x27;w&#x27; at 0x7f261d9141e0&gt;</div></td></tr><tr><td style="font-weight:bold;vertical-align:top;">wsgi.file_wrapper</td><td style="vertical-align:top;">:</td><td><div>&lt;class wsgiref.util.FileWrapper at 0x7f261a2931f0&gt;</div></td></tr><tr><td style="font-weight:bold;vertical-align:top;">wsgi.input</td><td style="vertical-align:top;">:</td><td><div>&lt;socket._fileobject object at 0x7f26141cb150&gt;</div></td></tr><tr><td style="font-weight:bold;vertical-align:top;">wsgi.multiprocess</td><td style="vertical-align:top;">:</td><td><div>False</div></td></tr><tr><td style="font-weight:bold;vertical-align:top;">wsgi.multithread</td><td style="vertical-align:top;">:</td><td><div>True</div></td></tr><tr><td style="font-weight:bold;vertical-align:top;">wsgi.run_once</td><td style="vertical-align:top;">:</td><td><div>False</div></td></tr><tr><td style="font-weight:bold;vertical-align:top;">wsgi.url_scheme</td><td style="vertical-align:top;">:</td><td><div>http</div></td></tr><tr><td style="font-weight:bold;vertical-align:top;">wsgi.version</td><td style="vertical-align:top;">:</td><td><div><table><tr><td><div>1</div></td></tr><tr><td><div>0</div></td></tr></table></div></td></tr><tr><td style="font-weight:bold;vertical-align:top;">wsgi_errors</td><td style="vertical-align:top;">:</td><td><div>&lt;open file &#x27;&lt;stderr&gt;&#x27;, mode &#x27;w&#x27; at 0x7f261d9141e0&gt;</div></td></tr><tr><td style="font-weight:bold;vertical-align:top;">wsgi_file_wrapper</td><td style="vertical-align:top;">:</td><td><div>&lt;class wsgiref.util.FileWrapper at 0x7f261a2931f0&gt;</div></td></tr><tr><td style="font-weight:bold;vertical-align:top;">wsgi_input</td><td style="vertical-align:top;">:</td><td><div>&lt;socket._fileobject object at 0x7f26141cb150&gt;</div></td></tr><tr><td style="font-weight:bold;vertical-align:top;">wsgi_multiprocess</td><td style="vertical-align:top;">:</td><td><div>False</div></td></tr><tr><td style="font-weight:bold;vertical-align:top;">wsgi_multithread</td><td style="vertical-align:top;">:</td><td><div>True</div></td></tr><tr><td style="font-weight:bold;vertical-align:top;">wsgi_run_once</td><td style="vertical-align:top;">:</td><td><div>False</div></td></tr><tr><td style="font-weight:bold;vertical-align:top;">wsgi_url_scheme</td><td style="vertical-align:top;">:</td><td><div>http</div></td></tr><tr><td style="font-weight:bold;vertical-align:top;">wsgi_version</td><td style="vertical-align:top;">:</td><td><div><table><tr><td><div>1</div></td></tr><tr><td><div>0</div></td></tr></table></div></td></tr></table></div></td></tr><tr><td style="font-weight:bold;vertical-align:top;">extension</td><td style="vertical-align:top;">:</td><td><div>html</div></td></tr><tr><td style="font-weight:bold;vertical-align:top;">folder</td><td style="vertical-align:top;">:</td><td><div>/home/ritvik/DatabasesLab/microblogging/web2py/applications/Assignment/</div></td></tr><tr><td style="font-weight:bold;vertical-align:top;">function</td><td style="vertical-align:top;">:</td><td><div>user</div></td></tr><tr><td style="font-weight:bold;vertical-align:top;">global_settings</td><td style="vertical-align:top;">:</td><td><div><table><tr><td style="font-weight:bold;vertical-align:top;">app_folders</td><td style="vertical-align:top;">:</td><td><div>set([&#x27;/home/ritvik/DatabasesLab/microblogging/web2py/applications/examples/&#x27;, &#x27;/home/ritvik/DatabasesLab/microblogging/web2py/applications/Assignment/&#x27;, &#x27;/home/ritvik/DatabasesLab/microblogging/web2py/applications/welcome/&#x27;, &#x27;/home/ritvik/DatabasesLab/microblogging/web2py/applications/admin/&#x27;])</div></td></tr><tr><td style="font-weight:bold;vertical-align:top;">applications_parent</td><td style="vertical-align:top;">:</td><td><div>/home/ritvik/DatabasesLab/microblogging/web2py</div></td></tr><tr><td style="font-weight:bold;vertical-align:top;">cmd_args</td><td style="vertical-align:top;">:</td><td><div><table></table></div></td></tr><tr><td style="font-weight:bold;vertical-align:top;">cmd_options</td><td style="vertical-align:top;">:</td><td><div>&lt;Values at 0x7f261a1e77a0: {&#x27;verbose&#x27;: False, &#x27;ip&#x27;: &#x27;127.0.0.1&#x27;, &#x27;debuglevel&#x27;: 30, &#x27;with_scheduler&#x27;: False, &#x27;ips&#x27;: [&#x27;127.0.1.1&#x27;], &#x27;shutdown_timeout&#x27;: 5, &#x27;taskbar&#x27;: False, &#x27;with_coverage&#x27;: False, &#x27;scheduler_groups&#x27;: None, &#x27;port&#x27;: 8000, &#x27;maxthreads&#x27;: None, &#x27;softcron&#x27;: False, &#x27;server_name&#x27;: &#x27;ritvik-HP-Pavilion-15-Notebook-PC&#x27;, &#x27;bpython&#x27;: False, &#x27;nogui&#x27;: False, &#x27;pid_filename&#x27;: &#x27;httpserver.pid&#x27;, &#x27;extcron&#x27;: False, &#x27;runcron&#x27;: False, &#x27;run_system_tests&#x27;: False, &#x27;test&#x27;: None, &#x27;folder&#x27;: &#x27;/home/ritvik/DatabasesLab/microblogging/web2py&#x27;, &#x27;config&#x27;: &#x27;&#x27;, &#x27;minthreads&#x27;: None, &#x27;shell&#x27;: None, &#x27;run&#x27;: &#x27;&#x27;, &#x27;log_filename&#x27;: &#x27;httpserver.log&#x27;, &#x27;profiler_dir&#x27;: None, &#x27;args&#x27;: [&#x27;&#x27;], &#x27;socket_timeout&#x27;: 5, &#x27;ssl_ca_certificate&#x27;: None, &#x27;scheduler&#x27;: None, &#x27;interfaces&#x27;: None, &#x27;ssl_private_key&#x27;: &#x27;&#x27;, &#x27;gae&#x27;: None, &#x27;password&#x27;: &#x27;&lt;ask&gt;&#x27;, &#x27;request_queue_size&#x27;: 5, &#x27;ssl_certificate&#x27;: &#x27;&#x27;, &#x27;cronjob&#x27;: False, &#x27;numthreads&#x27;: None, &#x27;quiet&#x27;: False, &#x27;import_models&#x27;: False, &#x27;timeout&#x27;: 10, &#x27;plain&#x27;: False, &#x27;nobanner&#x27;: False}&gt;</div></td></tr><tr><td style="font-weight:bold;vertical-align:top;">db_sessions</td><td style="vertical-align:top;">:</td><td><div>set([])</div></td></tr><tr><td style="font-weight:bold;vertical-align:top;">debugging</td><td style="vertical-align:top;">:</td><td><div>True</div></td></tr><tr><td style="font-weight:bold;vertical-align:top;">gluon_parent</td><td style="vertical-align:top;">:</td><td><div>/home/ritvik/DatabasesLab/microblogging/web2py</div></td></tr><tr><td style="font-weight:bold;vertical-align:top;">is_jython</td><td style="vertical-align:top;">:</td><td><div>False</div></td></tr><tr><td style="font-weight:bold;vertical-align:top;">is_pypy</td><td style="vertical-align:top;">:</td><td><div>False</div></td></tr><tr><td style="font-weight:bold;vertical-align:top;">is_source</td><td style="vertical-align:top;">:</td><td><div>True</div></td></tr><tr><td style="font-weight:bold;vertical-align:top;">local_hosts</td><td style="vertical-align:top;">:</td><td><div><table><tr><td><div>127.0.1.1</div></td></tr><tr><td><div>::1</div></td></tr><tr><td><div>ritvik-HP-Pavilion-15-Notebook-PC</div></td></tr><tr><td><div>::ffff:127.0.0.1</div></td></tr><tr><td><div>127.0.0.1</div></td></tr></table></div></td></tr><tr><td style="font-weight:bold;vertical-align:top;">web2py_version</td><td style="vertical-align:top;">:</td><td><div>2.9.12-stable+timestamp.2015.01.17.06.11.03</div></td></tr></table></div></td></tr><tr><td style="font-weight:bold;vertical-align:top;">is_https</td><td style="vertical-align:top;">:</td><td><div>False</div></td></tr><tr><td style="font-weight:bold;vertical-align:top;">is_local</td><td style="vertical-align:top;">:</td><td><div>True</div></td></tr><tr><td style="font-weight:bold;vertical-align:top;">is_restful</td><td style="vertical-align:top;">:</td><td><div>False</div></td></tr><tr><td style="font-weight:bold;vertical-align:top;">is_sheduler</td><td style="vertical-align:top;">:</td><td><div>None</div></td></tr><tr><td style="font-weight:bold;vertical-align:top;">is_shell</td><td style="vertical-align:top;">:</td><td><div>None</div></td></tr><tr><td style="font-weight:bold;vertical-align:top;">now</td><td style="vertical-align:top;">:</td><td><div>datetime.datetime(2015, 4, 2, 3, 59, 4, 883590)</div></td></tr><tr><td style="font-weight:bold;vertical-align:top;">raw_args</td><td style="vertical-align:top;">:</td><td><div>login</div></td></tr><tr><td style="font-weight:bold;vertical-align:top;">raw_extension</td><td style="vertical-align:top;">:</td><td><div>None</div></td></tr><tr><td style="font-weight:bold;vertical-align:top;">url</td><td style="vertical-align:top;">:</td><td><div>/Assignment/default/user/login</div></td></tr><tr><td style="font-weight:bold;vertical-align:top;">utcnow</td><td style="vertical-align:top;">:</td><td><div>datetime.datetime(2015, 4, 1, 22, 29, 4, 883625)</div></td></tr><tr><td style="font-weight:bold;vertical-align:top;">uuid</td><td style="vertical-align:top;">:</td><td><div>Assignment/127.0.0.1.2015-04-02.03-59-04.be20fcc6-53e7-41d1-9ee7-a515dcfc2753</div></td></tr><tr><td style="font-weight:bold;vertical-align:top;">wsgi</td><td style="vertical-align:top;">:</td><td><div>&lt;gluon.main.LazyWSGI object at 0x7f261c0ad510&gt;</div></td></tr></table></div>'
tRp70
sS'frames'
p71
(lp72
(dp73
S'file'
p74
S'/home/ritvik/DatabasesLab/microblogging/web2py/gluon/restricted.py'
p75
sS'dump'
p76
(dp77
S'environment'
p78
S"{'A': <class 'gluon.html.A'>, 'ANY_OF': <class 'gluon.validators.ANY_OF'>, 'ASSIGNJS': <function ASSIGNJS>, 'Auth': <class 'gluon.tools.Auth'>, 'B': <class 'gluon.html.B'>, 'BEAUTIFY': <class 'gluon.html.BEAUTIFY'>, 'BODY': <class 'gluon.html.BODY'>, 'BR': <class 'gluon.html.BR'>, 'BUTTON': <class 'gluon.html.BUTTON'>, 'CAT': <class 'gluon.html.CAT'>, ...}"
p79
sS'ccode'
p80
S'<code object <module> at 0x7f26140793b0, file "/...ions/Assignment/controllers/default.py", line 12>'
p81
ssS'lnum'
p82
I224
sS'lines'
p83
(dp84
I224
S'        exec ccode in environment'
p85
sI225
S'    except HTTP:'
p86
sI226
S'        raise'
p87
sI227
S'    except RestrictedError:'
p88
sI228
S'        # do not encapsulate (obfuscate) the original RestrictedError'
p89
sI219
S'    try:'
p90
sI220
S'        if isinstance(code, types.CodeType):'
p91
sI221
S'            ccode = code'
p92
sI222
S'        else:'
p93
sI223
S'            ccode = compile2(code, layer)'
p94
ssS'call'
p95
S"(code='# -*- coding: utf-8 -*-\\n# this file is released ...ars.id)))\\n\\nresponse._vars=response._caller(user)\\n', environment={'A': <class 'gluon.html.A'>, 'ANY_OF': <class 'gluon.validators.ANY_OF'>, 'ASSIGNJS': <function ASSIGNJS>, 'Auth': <class 'gluon.tools.Auth'>, 'B': <class 'gluon.html.B'>, 'BEAUTIFY': <class 'gluon.html.BEAUTIFY'>, 'BODY': <class 'gluon.html.BODY'>, 'BR': <class 'gluon.html.BR'>, 'BUTTON': <class 'gluon.html.BUTTON'>, 'CAT': <class 'gluon.html.CAT'>, ...}, layer='/home/ritvik/DatabasesLab/microblogging/web2py/applications/Assignment/controllers/default.py')"
p96
sS'func'
p97
S'restricted'
p98
sa(dp99
g74
S'/home/ritvik/DatabasesLab/microblogging/web2py/applications/Assignment/controllers/default.py'
p100
sg76
(dp101
sg82
I135
sg83
(dp102
I128
S'def blog():'
p103
sI129
S'    """'
p104
sI130
S'    Writes Blog Post'
p105
sI131
S'    """'
p106
sI132
S'    db.posts.insert(user_id=auth.user.id, body=request.vars.blog, news_id=request.vars.id)'
p107
sI133
S"    redirect(URL('default','feed',vars=dict(id=request.vars.id)))"
p108
sI124
S'    rows = db(db.posts.news_id == news_id).select(db.posts.ALL, orderby=(db.posts.upvotes-db.posts.downvotes - (db.posts.time_stamp)))'
p109
sI125
S'    row_list = rows.as_list()'
p110
sI126
S'    return dict(news_vars = request.vars, row_list = row_list)'
p111
sI127
S''
ssg95
S'()'
p112
sg97
S'<module>'
p113
sa(dp114
g74
S'/home/ritvik/DatabasesLab/microblogging/web2py/gluon/globals.py'
p115
sg76
(dp116
S'self'
p117
S'undefined'
p118
sS'f'
S'<function user>'
p119
ssg82
I393
sg83
(dp120
I388
S"        self.flash = ''            # used by the default view layout"
p121
sI389
S'        self.meta = Storage()      # used by web2py_ajax.html'
p122
sI390
S'        self.menu = []             # used by the default view layout'
p123
sI391
S'        self.files = []            # used by web2py_ajax.html'
p124
sI392
S'        self._vars = None'
p125
sI393
S'        self._caller = lambda f: f()'
p126
sI394
S'        self._view_environment = None'
p127
sI395
S'        self._custom_commit = None'
p128
sI396
S'        self._custom_rollback = None'
p129
sI397
S"        self.generic_patterns = ['*']"
p130
ssg95
S'(f=<function user>)'
p131
sg97
S'<lambda>'
p132
sa(dp133
g74
S'/home/ritvik/DatabasesLab/microblogging/web2py/applications/Assignment/controllers/default.py'
p134
sg76
(dp135
S'global auth'
p136
S'<gluon.tools.Auth object>'
p137
sS'form'
p138
g118
sS'builtindict'
p139
S"<type 'dict'>"
p140
sS'row_list'
p141
S'[{\'id\': 114L, \'image_link\': \'http://t2.gstatic.com/images?q=tbn:ANd9GcSkQ4N7p...imwQP6qLzVV3ulYbezqPB1aFwceDI_Q3RkwhVThet1Birgwni\', \'link\': \'http://news.google.com/news/url?sa=t&fd=R&ct2=in...jasthan-20983-villages-suffer-crop-damage-2073647\', \'title\': "\'41 killed in rain-related mishaps in Rajasthan;...lages suffer crop damage\' - Daily News & Analysis"}, {\'id\': 113L, \'image_link\': \'http://t0.gstatic.com/images?q=tbn:ANd9GcTGBgnj0...SGGnNr4XOD9cJWCGYprA0cY5rBOLUaUqpVH7Yw9fShvDkd7LI\', \'link\': \'http://news.google.com/news/url?sa=t&fd=R&ct2=in...dents-in-current-session/articleshow/46764379.cms\', \'title\': \'SC refuses quota for Jat students in current session - Times of India\'}, {\'id\': 112L, \'image_link\': \'http://t0.gstatic.com/images?q=tbn:ANd9GcRU11Fw4...b08pol1qbcpWnUVasQK_CiiQPB5NQKJMjIglVal_0R6YqmZk0\', \'link\': \'http://news.google.com/news/url?sa=t&fd=R&ct2=in...sult-china-vietnam-and-india-1427844560?tesla%3Dy\', \'title\': \'Want to Reduce Inequality? Consult China, Vietnam and India - Wall Street Journal\'}, {\'id\': 111L, \'image_link\': \'http://t2.gstatic.com/images?q=tbn:ANd9GcSD5t51p...y_FqSwSzPfgjfHt9Fd6vNMpjE7l0UXw6_dYjABOrOgXXdP5gU\', \'link\': \'http://news.google.com/news/url?sa=t&fd=R&ct2=in...-by-etihad-emirates-flights-over-mumbai-airspace/\', \'title\': \'Probe begins in Emirates, Etihad near-miss incident - The Indian Express\'}, {\'id\': 110L, \'image_link\': \'http://t1.gstatic.com/images?q=tbn:ANd9GcR3SWU_I...ZW01l-jhhjGOgl9-fJahC0VDbZ6ST01LtbdF1ZPvwPoRFH8MI\', \'link\': \'http://news.google.com/news/url?sa=t&fd=R&ct2=in...cigarette-packs-deferred/articleshow/46764405.cms\', \'title\': \'Move to have bigger pictorial warnings on cigarette packs deferred - Times of India\'}, {\'id\': 109L, \'image_link\': \'http://t1.gstatic.com/images?q=tbn:ANd9GcTOtuMUn...WACvqJW5Xjv7gL3zVqP4JEoW1-uMqZFcHK8uoNgI0Ta_xKuzS\', \'link\': \'http://news.google.com/news/url?sa=t&fd=R&ct2=in...ers-in-babri-masjid-case/articleshow/46764423.cms\', \'title\': \'Supreme Court issues notices to LK Advani, MM Joshi & 19 Others in Babri ... - Economic Times\'}, {\'id\': 108L, \'image_link\': \'http://t3.gstatic.com/images?q=tbn:ANd9GcTcQ-TfJ...eYdP9hnS5OkEI8sIM8iINWZmY2ubl5GTxXX7WAaqniGFpEwfo\', \'link\': \'http://news.google.com/news/url?sa=t&fd=R&ct2=in...gation-of-land-ordinance/articleshow/46764545.cms\', \'title\': \'Cabinet okays re-promulgation of land ordinance - Times of India\'}, {\'id\': 107L, \'image_link\': \'http://t2.gstatic.com/images?q=tbn:ANd9GcRfJAgi6...JfH3jaoO8_Q89FNE52ihXoY8NICYAeQoxa930uXRiY9VC9Lbv\', \'link\': \'http://news.google.com/news/url?sa=t&fd=R&ct2=in...al-controversy-escalates/articleshow/46763494.cms\', \'title\': \'Donations to AAP dry up as Bhushan, Yadav vs Arvind Kejriwal controversy ... - Economic Times\'}, {\'id\': 106L, \'image_link\': \'http://t2.gstatic.com/images?q=tbn:ANd9GcSbtnvRy...Vf9UKqe7K7szuMkLEbRYOE7aVCsBgGsoZlN33EHJxIjUOUGI6\', \'link\': \'http://news.google.com/news/url?sa=t&fd=R&ct2=in...-congress-stages-walkout/articleshow/46764402.cms\', \'title\': \'Gujarat state assembly okays anti-terror law; Congress stages walkout - Economic Times\'}, {\'id\': 105L, \'image_link\': \'http://t0.gstatic.com/images?q=tbn:ANd9GcSFrx6cV...n9Hsh5PlWVcSgiF8k3BkvoWIHsXIsFVhCWJuRSghbqDtyPzKc\', \'link\': \'http://news.google.com/news/url?sa=t&fd=R&ct2=in...wait-to-board-ships-home/articleshow/46764473.cms\', \'title\': "Bags packed, Indians can\'t wait to board ships home - Times of India"}]'
p142
ssg82
I52
sg83
(dp143
I47
S"        @auth.requires_membership('group name')"
p144
sI48
S"        @auth.requires_permission('read','table name',record_id)"
p145
sI49
S'    to decorate functions that need access control'
p146
sI50
S'    """'
p147
sI51
S'    row_list = news()'
p148
sI52
S'    return dict(form=auth(), row_list = row_list)'
p149
sI53
S''
sI54
S''
sI55
S'@cache.action()'
p150
sI56
S'def download():'
p151
ssg95
S'()'
p152
sg97
S'user'
p153
sa(dp154
g74
S'/home/ritvik/DatabasesLab/microblogging/web2py/gluon/tools.py'
p155
sg76
(dp156
S'self'
p157
S'<gluon.tools.Auth object>'
p158
sS'args'
p159
S"['login']"
p160
sS'builtingetattr'
p161
S'<built-in function getattr>'
p162
ssg82
I1442
sg83
(dp163
I1440
S'                return getattr(self, args[0])(request.args[1])'
p164
sI1441
S'            else:'
p165
sI1442
S'                return getattr(self, args[0])()'
p166
sI1443
S"        elif args[0] == 'cas' and not self.settings.cas_provider:"
p167
sI1444
S"            if args(1) == self.settings.cas_actions['login']:"
p168
sI1445
S'                return self.cas_login(version=2)'
p169
sI1446
S"            elif args(1) == self.settings.cas_actions['validate']:"
p170
sI1437
S"                       'change_password', 'profile', 'groups',"
p171
sI1438
S"                       'impersonate', 'not_authorized'):"
p172
sI1439
S"            if len(request.args) >= 2 and args[0] == 'impersonate':"
p173
ssg95
S'(self=<gluon.tools.Auth object>)'
p174
sg97
S'__call__'
p175
sa(dp176
g74
S'/home/ritvik/DatabasesLab/microblogging/web2py/gluon/tools.py'
p177
sg76
(dp178
S'cas'
p179
S'<gluon.contrib.login_methods.janrain_account.RPXAccount object>'
p180
sS'cas.get_user'
p181
S'<bound method RPXAccount.get_user of <gluon.cont...login_methods.janrain_account.RPXAccount object>>'
p182
sS'cas_user'
p183
g118
ssg82
I2518
sg83
(dp184
I2513
S'                            self.url(args=request.args, vars=request.get_vars),'
p185
sI2514
S'                            client_side=settings.client_side)'
p186
sI2515
S''
sI2516
S'            else: # use a central authentication server'
p187
sI2517
S'                cas = settings.login_form'
p188
sI2518
S'                cas_user = cas.get_user()'
p189
sI2519
S''
sI2520
S'                if cas_user:'
p190
sI2521
S'                    cas_user[passfield] = None'
p191
sI2522
S'                    user = self.get_or_create_user('
p192
ssg95
S"(self=<gluon.tools.Auth object>, next='/Assignment/default/feed?id=114', onvalidation=[], onaccept=[], log='User %(id)s Logged-in')"
p193
sg97
S'login'
p194
sa(dp195
g74
S'/home/ritvik/DatabasesLab/microblogging/web2py/gluon/contrib/login_methods/janrain_account.py'
p196
sg76
(dp197
S'auth_info_json'
p198
g118
sS'self'
p199
S'<gluon.contrib.login_methods.janrain_account.RPXAccount object>'
p200
sS'data'
p201
S"'token=5141296713175ae3c86b846f6379f17815afa80c&apiKey=941bd3cb2586953237867bcbf9cd627e630c6631'"
p202
sS'global fetch'
p203
S'<function fetch>'
p204
sS'self.auth_url'
p205
S"'https://rpxnow.com/api/v2/auth_info'"
p206
ssg82
I85
sg83
(dp207
I80
S'        request = self.request'
p208
sI81
S'        if request.vars.token:'
p209
sI82
S'            user = Storage()'
p210
sI83
S'            data = urllib.urlencode('
p211
sI84
S'                dict(apiKey=self.api_key, token=request.vars.token))'
p212
sI85
S"            auth_info_json = fetch(self.auth_url + '?' + data)"
p213
sI86
S'            auth_info = json.loads(auth_info_json)'
p214
sI87
S''
sI88
S"            if auth_info['stat'] == 'ok':"
p215
sI89
S"                self.profile = auth_info['profile']"
p216
ssg95
S'(self=<gluon.contrib.login_methods.janrain_account.RPXAccount object>)'
p217
sg97
S'get_user'
p218
sa(dp219
g74
S'/home/ritvik/DatabasesLab/microblogging/web2py/gluon/tools.py'
p220
sg76
(dp221
S'urllib2.urlopen'
p222
S'<function urlopen>'
p223
sS'global urllib2'
p224
S"<module 'urllib2' from '/usr/lib/python2.7/urllib2.pyc'>"
p225
sS'html'
p226
g118
sS'req'
p227
S'<urllib2.Request instance>'
p228
sS').read'
p229
g118
ssg82
I4408
sg83
(dp230
I4403
S"        ['%s=%s;' % (c.key, c.value) for c in cookie.values()])"
p231
sI4404
S'    try:'
p232
sI4405
S'        from google.appengine.api import urlfetch'
p233
sI4406
S'    except ImportError:'
p234
sI4407
S'        req = urllib2.Request(url, data, headers)'
p235
sI4408
S'        html = urllib2.urlopen(req).read()'
p236
sI4409
S'    else:'
p237
sI4410
S'        method = ((data is None) and urlfetch.GET) or urlfetch.POST'
p238
sI4411
S'        while url is not None:'
p239
sI4412
S'            response = urlfetch.fetch(url=url, payload=data,'
p240
ssg95
S"(url='https://rpxnow.com/api/v2/auth_info?token=514129...c&apiKey=941bd3cb2586953237867bcbf9cd627e630c6631', data=None, headers={'Cookie': '', 'User-agent': 'Mozilla/5.0'}, cookie=<SimpleCookie: >, user_agent='Mozilla/5.0')"
p241
sg97
S'fetch'
p242
sa(dp243
g74
S'/usr/lib/python2.7/urllib2.py'
p244
sg76
(dp245
S'_opener.open'
p246
S'<bound method OpenerDirector.open of <urllib2.OpenerDirector instance>>'
p247
sS'url'
p248
S'<urllib2.Request instance>'
p249
sS'data'
p250
S'None'
p251
sS'global _opener'
p252
S'<urllib2.OpenerDirector instance>'
p253
sS'timeout'
p254
S'<object object>'
p255
ssg82
I127
sg83
(dp256
I128
S''
sI129
S'def install_opener(opener):'
p257
sI130
S'    global _opener'
p258
sI131
S'    _opener = opener'
p259
sI122
S'_opener = None'
p260
sI123
S'def urlopen(url, data=None, timeout=socket._GLOBAL_DEFAULT_TIMEOUT):'
p261
sI124
S'    global _opener'
p262
sI125
S'    if _opener is None:'
p263
sI126
S'        _opener = build_opener()'
p264
sI127
S'    return _opener.open(url, data, timeout)'
p265
ssg95
S'(url=<urllib2.Request instance>, data=None, timeout=<object object>)'
p266
sg97
S'urlopen'
p267
sa(dp268
g74
S'/usr/lib/python2.7/urllib2.py'
p269
sg76
(dp270
S'self'
p271
S'<urllib2.OpenerDirector instance>'
p272
sS'req'
p273
S'<urllib2.Request instance>'
p274
sS'data'
p275
S'None'
p276
sS'response'
p277
g118
sS'self._open'
p278
S'<bound method OpenerDirector._open of <urllib2.OpenerDirector instance>>'
p279
ssg82
I404
sg83
(dp280
I399
S'        meth_name = protocol+"_request"'
p281
sI400
S'        for processor in self.process_request.get(protocol, []):'
p282
sI401
S'            meth = getattr(processor, meth_name)'
p283
sI402
S'            req = meth(req)'
p284
sI403
S''
sI404
S'        response = self._open(req, data)'
p285
sI405
S''
sI406
S'        # post-process response'
p286
sI407
S'        meth_name = protocol+"_response"'
p287
sI408
S'        for processor in self.process_response.get(protocol, []):'
p288
ssg95
S'(self=<urllib2.OpenerDirector instance>, fullurl=<urllib2.Request instance>, data=None, timeout=<object object>)'
p289
sg97
S'open'
p290
sa(dp291
g74
S'/usr/lib/python2.7/urllib2.py'
p292
sg76
(dp293
S'req'
p294
S'<urllib2.Request instance>'
p295
ssg82
I422
sg83
(dp296
I417
S'        if result:'
p297
sI418
S'            return result'
p298
sI419
S''
sI420
S'        protocol = req.get_type()'
p299
sI421
S'        result = self._call_chain(self.handle_open, protocol, protocol +'
p300
sI422
S"                                  '_open', req)"
p301
sI423
S'        if result:'
p302
sI424
S'            return result'
p303
sI425
S''
sI426
S"        return self._call_chain(self.handle_open, 'unknown',"
p304
ssg95
S'(self=<urllib2.OpenerDirector instance>, req=<urllib2.Request instance>, data=None)'
p305
sg97
S'_open'
p306
sa(dp307
g74
S'/usr/lib/python2.7/urllib2.py'
p308
sg76
(dp309
S'args'
p310
S'(<urllib2.Request instance>,)'
p311
sS'result'
p312
S'None'
p313
sS'func'
p314
S'<bound method HTTPSHandler.https_open of <urllib2.HTTPSHandler instance>>'
p315
ssg82
I382
sg83
(dp316
I384
S'                return result'
p317
sI385
S''
sI386
S'    def open(self, fullurl, data=None, timeout=socket._GLOBAL_DEFAULT_TIMEOUT):'
p318
sI377
S'        # could.  Otherwise, they return the response.'
p319
sI378
S'        handlers = chain.get(kind, ())'
p320
sI379
S'        for handler in handlers:'
p321
sI380
S'            func = getattr(handler, meth_name)'
p322
sI381
S''
sI382
S'            result = func(*args)'
p323
sI383
S'            if result is not None:'
p324
ssg95
S"(self=<urllib2.OpenerDirector instance>, chain={'all': [<urllib2.ProxyHandler instance>], 'file': [<urllib2.FileHandler instance>], 'ftp': [<urllib2.ProxyHandler instance>, <urllib2.FTPHandler instance>], 'http': [<urllib2.ProxyHandler instance>, <urllib2.HTTPHandler instance>], 'https': [<urllib2.ProxyHandler instance>, <urllib2.HTTPSHandler instance>], 'no': [<urllib2.ProxyHandler instance>], 'socks': [<urllib2.ProxyHandler instance>], 'unknown': [<urllib2.UnknownHandler instance>]}, kind='https', meth_name='https_open', *args=(<urllib2.Request instance>,))"
p325
sg97
S'_call_chain'
p326
sa(dp327
g74
S'/usr/lib/python2.7/urllib2.py'
p328
sg76
(dp329
S'self'
p330
S'<urllib2.HTTPSHandler instance>'
p331
sS'req'
p332
S'<urllib2.Request instance>'
p333
sS'global httplib'
p334
S"<module 'httplib' from '/usr/lib/python2.7/httplib.pyc'>"
p335
sS'self.do_open'
p336
S'<bound method HTTPSHandler.do_open of <urllib2.HTTPSHandler instance>>'
p337
sS'httplib.HTTPSConnection'
p338
S'<class httplib.HTTPSConnection>'
p339
ssg82
I1222
sg83
(dp340
I1217
S''
sI1218
S"if hasattr(httplib, 'HTTPS'):"
p341
sI1219
S'    class HTTPSHandler(AbstractHTTPHandler):'
p342
sI1220
S''
sI1221
S'        def https_open(self, req):'
p343
sI1222
S'            return self.do_open(httplib.HTTPSConnection, req)'
p344
sI1223
S''
sI1224
S'        https_request = AbstractHTTPHandler.do_request_'
p345
sI1225
S''
sI1226
S'class HTTPCookieProcessor(BaseHandler):'
p346
ssg95
S'(self=<urllib2.HTTPSHandler instance>, req=<urllib2.Request instance>)'
p347
sg97
S'https_open'
p348
sa(dp349
g74
S'/usr/lib/python2.7/urllib2.py'
p350
sg76
(dp351
S'err'
p352
S"error('Tunnel connection failed: 407 Proxy Authentication Required',)"
p353
sS'global URLError'
p354
S"<class 'urllib2.URLError'>"
p355
ssg82
I1184
sg83
(dp356
I1184
S'            raise URLError(err)'
p357
sI1185
S'        else:'
p358
sI1186
S'            try:'
p359
sI1187
S'                r = h.getresponse(buffering=True)'
p360
sI1188
S'            except TypeError: # buffering kw not supported'
p361
sI1179
S''
sI1180
S'        try:'
p362
sI1181
S'            h.request(req.get_method(), req.get_selector(), req.data, headers)'
p363
sI1182
S'        except socket.error, err: # XXX what error?'
p364
sI1183
S'            h.close()'
p365
ssg95
S'(self=<urllib2.HTTPSHandler instance>, http_class=<class httplib.HTTPSConnection>, req=<urllib2.Request instance>)'
p366
sg97
S'do_open'
p367
sasS'pyver'
p368
S'Python 2.7.6: /usr/bin/python (prefix: /usr)'
p369
sS'session'
p370
g69
(S's:\x01\x00\x00<div><table><tr><td style="font-weight:bold;vertical-align:top;">last_orderby</td><td style="vertical-align:top;">:</td><td><div>None</div></td></tr><tr><td style="font-weight:bold;vertical-align:top;">last_query</td><td style="vertical-align:top;">:</td><td><div>db.auth_user.id&gt;0</div></td></tr></table></div>'
tRp371
sS'etype'
p372
S"<class 'urllib2.URLError'>"
p373
sS'date'
p374
S'Thu Apr  2 03:59:05 2015'
p375
sS'response'
p376
g69
(S's\xf82\x00\x00<div><table><tr><td style="font-weight:bold;vertical-align:top;">body</td><td style="vertical-align:top;">:</td><td><div>&lt;cStringIO.StringO object at 0x7f2614661228&gt;</div></td></tr><tr><td style="font-weight:bold;vertical-align:top;">cookies</td><td style="vertical-align:top;">:</td><td><div><table><tr><td style="font-weight:bold;vertical-align:top;">session_id_assignment</td><td style="vertical-align:top;">:</td><td><div>127.0.0.1-a39b5be1-73ec-4194-884c-b6470ea256f7<table><tr><td style="font-weight:bold;vertical-align:top;">comment</td><td style="vertical-align:top;">:</td><td><div></div></td></tr><tr><td style="font-weight:bold;vertical-align:top;">domain</td><td style="vertical-align:top;">:</td><td><div></div></td></tr><tr><td style="font-weight:bold;vertical-align:top;">expires</td><td style="vertical-align:top;">:</td><td><div></div></td></tr><tr><td style="font-weight:bold;vertical-align:top;">httponly</td><td style="vertical-align:top;">:</td><td><div></div></td></tr><tr><td style="font-weight:bold;vertical-align:top;">max-age</td><td style="vertical-align:top;">:</td><td><div></div></td></tr><tr><td style="font-weight:bold;vertical-align:top;">path</td><td style="vertical-align:top;">:</td><td><div>/</div></td></tr><tr><td style="font-weight:bold;vertical-align:top;">secure</td><td style="vertical-align:top;">:</td><td><div></div></td></tr><tr><td style="font-weight:bold;vertical-align:top;">version</td><td style="vertical-align:top;">:</td><td><div></div></td></tr></table></div></td></tr></table></div></td></tr><tr><td style="font-weight:bold;vertical-align:top;">delimiters</td><td style="vertical-align:top;">:</td><td><div><table><tr><td><div>{{</div></td></tr><tr><td><div>}}</div></td></tr></table></div></td></tr><tr><td style="font-weight:bold;vertical-align:top;">files</td><td style="vertical-align:top;">:</td><td><div><table></table></div></td></tr><tr><td style="font-weight:bold;vertical-align:top;">flash</td><td style="vertical-align:top;">:</td><td><div></div></td></tr><tr><td style="font-weight:bold;vertical-align:top;">form_label_separator</td><td style="vertical-align:top;">:</td><td><div>: </div></td></tr><tr><td style="font-weight:bold;vertical-align:top;">formstyle</td><td style="vertical-align:top;">:</td><td><div>table3cols</div></td></tr><tr><td style="font-weight:bold;vertical-align:top;">generic_patterns</td><td style="vertical-align:top;">:</td><td><div><table><tr><td><div>*</div></td></tr></table></div></td></tr><tr><td style="font-weight:bold;vertical-align:top;">google_analytics_id</td><td style="vertical-align:top;">:</td><td><div>None</div></td></tr><tr><td style="font-weight:bold;vertical-align:top;">headers</td><td style="vertical-align:top;">:</td><td><div><table><tr><td style="font-weight:bold;vertical-align:top;">X-Powered-By</td><td style="vertical-align:top;">:</td><td><div>web2py</div></td></tr></table></div></td></tr><tr><td style="font-weight:bold;vertical-align:top;">logo</td><td style="vertical-align:top;">:</td><td><div><a class="brand" href="http://www.web2py.com/"><b>web<span>2</span>py</b>&trade;&nbsp;</a></div></td></tr><tr><td style="font-weight:bold;vertical-align:top;">menu</td><td style="vertical-align:top;">:</td><td><div><table><tr><td><div><table><tr><td><div>Home</div></td></tr><tr><td><div>False</div></td></tr><tr><td><div>/Assignment/default/index</div></td></tr><tr><td><div><table></table></div></td></tr></table></div></td></tr><tr><td><div><table><tr><td><div><span class="highlighted">web2py</span></div></td></tr><tr><td><div>False</div></td></tr><tr><td><div>http://web2py.com</div></td></tr><tr><td><div><table><tr><td><div><table><tr><td><div>My Sites</div></td></tr><tr><td><div>False</div></td></tr><tr><td><div>/admin/default/site</div></td></tr></table></div></td></tr><tr><td><div><table><tr><td><div>This App</div></td></tr><tr><td><div>False</div></td></tr><tr><td><div>/admin/default/design/Assignment</div></td></tr><tr><td><div>[(&lt;lazyT &#x27;Controller&#x27;&gt;, False, &#x27;/admin/default/edit/Assignment/controllers/default.py&#x27;), (&lt;lazyT &#x27;View&#x27;&gt;, False, &#x27;/admin/default/edit/Assignment/views/default/user.html&#x27;), (&lt;lazyT &#x27;Layout&#x27;&gt;, False, &#x27;/admin/default/edit/Assignment/views/layout.html&#x27;), (&lt;lazyT &#x27;Stylesheet&#x27;&gt;, False, &#x27;/admin/default/edit/Assignment/static/css/web2py.css&#x27;), (&lt;lazyT &#x27;DB Model&#x27;&gt;, False, &#x27;/admin/default/edit/Assignment/models/db.py&#x27;), (&lt;lazyT &#x27;Menu Model&#x27;&gt;, False, &#x27;/admin/default/edit/Assignment/models/menu.py&#x27;), (&lt;lazyT &#x27;Database&#x27;&gt;, False, &#x27;/Assignment/appadmin/index&#x27;), (&lt;lazyT &#x27;Errors&#x27;&gt;, False, &#x27;/admin/default/errors/Assignment&#x27;), (&lt;lazyT &#x27;About&#x27;&gt;, False, &#x27;/admin/default/about/Assignment&#x27;)]</div></td></tr></table></div></td></tr><tr><td><div><table><tr><td><div>web2py.com</div></td></tr><tr><td><div>False</div></td></tr><tr><td><div>http://www.web2py.com</div></td></tr><tr><td><div>[(&lt;lazyT &#x27;Download&#x27;&gt;, False, &#x27;http://www.web2py.com/examples/default/download&#x27;), (&lt;lazyT &#x27;Support&#x27;&gt;, False, &#x27;http://www.web2py.com/examples/default/support&#x27;), (&lt;lazyT &#x27;Demo&#x27;&gt;, False, &#x27;http://web2py.com/demo_admin&#x27;), (&lt;lazyT &#x27;Quick Examples&#x27;&gt;, False, &#x27;http://web2py.com/examples/default/examples&#x27;), (&lt;lazyT &#x27;FAQ&#x27;&gt;, False, &#x27;http://web2py.com/AlterEgo&#x27;), (&lt;lazyT &#x27;Videos&#x27;&gt;, False, &#x27;http://www.web2py.com/examples/default/videos/&#x27;), (&lt;lazyT &#x27;Free Applications&#x27;&gt;, False, &#x27;http://web2py.com/appliances&#x27;), (&lt;lazyT &#x27;Plugins&#x27;&gt;, False, &#x27;http://web2py.com/plugins&#x27;), (&lt;lazyT &#x27;Layouts&#x27;&gt;, False, &#x27;http://web2py.com/layouts&#x27;), (&lt;lazyT &#x27;Recipes&#x27;&gt;, False, &#x27;http://web2pyslices.com/&#x27;), (&lt;lazyT &#x27;Semantic&#x27;&gt;, False, &#x27;http://web2py.com/semantic&#x27;)]</div></td></tr></table></div></td></tr><tr><td><div><table><tr><td><div>Documentation</div></td></tr><tr><td><div>False</div></td></tr><tr><td><div>http://www.web2py.com/book</div></td></tr><tr><td><div>[(&lt;lazyT &#x27;Preface&#x27;&gt;, False, &#x27;http://www.web2py.com/book/default/chapter/00&#x27;), (&lt;lazyT &#x27;Introduction&#x27;&gt;, False, &#x27;http://www.web2py.com/book/default/chapter/01&#x27;), (&lt;lazyT &#x27;Python&#x27;&gt;, False, &#x27;http://www.web2py.com/book/default/chapter/02&#x27;), (&lt;lazyT &#x27;Overview&#x27;&gt;, False, &#x27;http://www.web2py.com/book/default/chapter/03&#x27;), (&lt;lazyT &#x27;The Core&#x27;&gt;, False, &#x27;http://www.web2py.com/book/default/chapter/04&#x27;), (&lt;lazyT &#x27;The Views&#x27;&gt;, False, &#x27;http://www.web2py.com/book/default/chapter/05&#x27;), (&lt;lazyT &#x27;Database&#x27;&gt;, False, &#x27;http://www.web2py.com/book/default/chapter/06&#x27;), (&lt;lazyT &#x27;Forms and Validators&#x27;&gt;, False, &#x27;http://www.web2py.com/book/default/chapter/07&#x27;), (&lt;lazyT &#x27;Email and SMS&#x27;&gt;, False, &#x27;http://www.web2py.com/book/default/chapter/08&#x27;), (&lt;lazyT &#x27;Access Control&#x27;&gt;, False, &#x27;http://www.web2py.com/book/default/chapter/09&#x27;), (&lt;lazyT &#x27;Services&#x27;&gt;, False, &#x27;http://www.web2py.com/book/default/chapter/10&#x27;), (&lt;lazyT &#x27;Ajax Recipes&#x27;&gt;, False, &#x27;http://www.web2py.com/book/default/chapter/11&#x27;), (&lt;lazyT &#x27;Components and Plugins&#x27;&gt;, False, &#x27;http://www.web2py.com/book/default/chapter/12&#x27;), (&lt;lazyT &#x27;Deployment Recipes&#x27;&gt;, False, &#x27;http://www.web2py.com/book/default/chapter/13&#x27;), (&lt;lazyT &#x27;Other Recipes&#x27;&gt;, False, &#x27;http://www.web2py.com/book/default/chapter/14&#x27;), (&lt;lazyT &#x27;Buy this book&#x27;&gt;, False, &#x27;http://stores.lulu.com/web2py&#x27;)]</div></td></tr></table></div></td></tr><tr><td><div><table><tr><td><div>Community</div></td></tr><tr><td><div>False</div></td></tr><tr><td><div>None</div></td></tr><tr><td><div>[(&lt;lazyT &#x27;Groups&#x27;&gt;, False, &#x27;http://www.web2py.com/examples/default/usergroups&#x27;), (&lt;lazyT &#x27;Twitter&#x27;&gt;, False, &#x27;http://twitter.com/web2py&#x27;), (&lt;lazyT &#x27;Live Chat&#x27;&gt;, False, &#x27;http://webchat.freenode.net/?channels=web2py&#x27;)]</div></td></tr></table></div></td></tr><tr><td><div><table><tr><td><div>Plugins</div></td></tr><tr><td><div>False</div></td></tr><tr><td><div>None</div></td></tr><tr><td><div>[(&#x27;plugin_wiki&#x27;, False, &#x27;http://web2py.com/examples/default/download&#x27;), (&lt;lazyT &#x27;Other Plugins&#x27;&gt;, False, &#x27;http://web2py.com/plugins&#x27;), (&lt;lazyT &#x27;Layout Plugins&#x27;&gt;, False, &#x27;http://web2py.com/layouts&#x27;)]</div></td></tr></table></div></td></tr></table></div></td></tr></table></div></td></tr></table></div></td></tr><tr><td style="font-weight:bold;vertical-align:top;">meta</td><td style="vertical-align:top;">:</td><td><div><table><tr><td style="font-weight:bold;vertical-align:top;">author</td><td style="vertical-align:top;">:</td><td><div>Your Name &lt;you@example.com&gt;</div></td></tr><tr><td style="font-weight:bold;vertical-align:top;">generator</td><td style="vertical-align:top;">:</td><td><div>Web2py Web Framework</div></td></tr><tr><td style="font-weight:bold;vertical-align:top;">keywords</td><td style="vertical-align:top;">:</td><td><div>web2py, python, framework</div></td></tr></table></div></td></tr><tr><td style="font-weight:bold;vertical-align:top;">models_to_run</td><td style="vertical-align:top;">:</td><td><div><table><tr><td><div>^\\w+\\.py$</div></td></tr><tr><td><div>^default/\\w+\\.py$</div></td></tr><tr><td><div>^default/user/\\w+\\.py$</div></td></tr></table></div></td></tr><tr><td style="font-weight:bold;vertical-align:top;">postprocessing</td><td style="vertical-align:top;">:</td><td><div><table></table></div></td></tr><tr><td style="font-weight:bold;vertical-align:top;">session_client</td><td style="vertical-align:top;">:</td><td><div>127.0.0.1</div></td></tr><tr><td style="font-weight:bold;vertical-align:top;">session_cookie_compression_level</td><td style="vertical-align:top;">:</td><td><div>None</div></td></tr><tr><td style="font-weight:bold;vertical-align:top;">session_cookie_expires</td><td style="vertical-align:top;">:</td><td><div>None</div></td></tr><tr><td style="font-weight:bold;vertical-align:top;">session_cookie_key</td><td style="vertical-align:top;">:</td><td><div>None</div></td></tr><tr><td style="font-weight:bold;vertical-align:top;">session_data_name</td><td style="vertical-align:top;">:</td><td><div>session_data_assignment</div></td></tr><tr><td style="font-weight:bold;vertical-align:top;">session_file</td><td style="vertical-align:top;">:</td><td><div>&lt;open file &#x27;/home/ritvik/DatabasesLab/microblogging/web2py/applications/Assignment/sessions/1df/022/127.0.0.1-a39b5be1-73ec-4194-884c-b6470ea256f7&#x27;, mode &#x27;rb+&#x27; at 0x7f25e926edb0&gt;</div></td></tr><tr><td style="font-weight:bold;vertical-align:top;">session_filename</td><td style="vertical-align:top;">:</td><td><div>/home/ritvik/DatabasesLab/microblogging/web2py/applications/Assignment/sessions/127.0.0.1-a39b5be1-73ec-4194-884c-b6470ea256f7</div></td></tr><tr><td style="font-weight:bold;vertical-align:top;">session_hash</td><td style="vertical-align:top;">:</td><td><div>7e17f393cdb2244c3de4f7a15e5e4e4f</div></td></tr><tr><td style="font-weight:bold;vertical-align:top;">session_id</td><td style="vertical-align:top;">:</td><td><div>127.0.0.1-a39b5be1-73ec-4194-884c-b6470ea256f7</div></td></tr><tr><td style="font-weight:bold;vertical-align:top;">session_id_name</td><td style="vertical-align:top;">:</td><td><div>session_id_assignment</div></td></tr><tr><td style="font-weight:bold;vertical-align:top;">session_locked</td><td style="vertical-align:top;">:</td><td><div>True</div></td></tr><tr><td style="font-weight:bold;vertical-align:top;">session_masterapp</td><td style="vertical-align:top;">:</td><td><div>Assignment</div></td></tr><tr><td style="font-weight:bold;vertical-align:top;">session_new</td><td style="vertical-align:top;">:</td><td><div>False</div></td></tr><tr><td style="font-weight:bold;vertical-align:top;">session_storage_type</td><td style="vertical-align:top;">:</td><td><div>file</div></td></tr><tr><td style="font-weight:bold;vertical-align:top;">status</td><td style="vertical-align:top;">:</td><td><div>200</div></td></tr><tr><td style="font-weight:bold;vertical-align:top;">subtitle</td><td style="vertical-align:top;">:</td><td><div></div></td></tr><tr><td style="font-weight:bold;vertical-align:top;">title</td><td style="vertical-align:top;">:</td><td><div>Assignment</div></td></tr><tr><td style="font-weight:bold;vertical-align:top;">view</td><td style="vertical-align:top;">:</td><td><div>default/user.html</div></td></tr></table></div>'
tRp377
sS'locals'
p378
(dp379
S'proxy_auth_hdr'
p380
S"'Proxy-Authorization'"
p381
sS'err'
p382
S"error('Tunnel connection failed: 407 Proxy Authentication Required',)"
p383
sS'h'
S'<httplib.HTTPSConnection instance>'
p384
sS'self'
p385
S'<urllib2.HTTPSHandler instance>'
p386
sS'req'
p387
S'<urllib2.Request instance>'
p388
sS'headers'
p389
S"{'Connection': 'close', 'Cookie': '', 'Host': 'rpxnow.com', 'User-Agent': 'Mozilla/5.0'}"
p390
sS'host'
p391
S"'202.141.80.20:3128'"
p392
sS'http_class'
p393
S'<class httplib.HTTPSConnection>'
p394
sS'tunnel_headers'
p395
S'{}'
p396
sssS'traceback'
p397
S'Traceback (most recent call last):\n  File "/home/ritvik/DatabasesLab/microblogging/web2py/gluon/restricted.py", line 224, in restricted\n    exec ccode in environment\n  File "/home/ritvik/DatabasesLab/microblogging/web2py/applications/Assignment/controllers/default.py", line 135, in <module>\n  File "/home/ritvik/DatabasesLab/microblogging/web2py/gluon/globals.py", line 393, in <lambda>\n    self._caller = lambda f: f()\n  File "/home/ritvik/DatabasesLab/microblogging/web2py/applications/Assignment/controllers/default.py", line 52, in user\n    return dict(form=auth(), row_list = row_list)\n  File "/home/ritvik/DatabasesLab/microblogging/web2py/gluon/tools.py", line 1442, in __call__\n    return getattr(self, args[0])()\n  File "/home/ritvik/DatabasesLab/microblogging/web2py/gluon/tools.py", line 2518, in login\n    cas_user = cas.get_user()\n  File "/home/ritvik/DatabasesLab/microblogging/web2py/gluon/contrib/login_methods/janrain_account.py", line 85, in get_user\n    auth_info_json = fetch(self.auth_url + \'?\' + data)\n  File "/home/ritvik/DatabasesLab/microblogging/web2py/gluon/tools.py", line 4408, in fetch\n    html = urllib2.urlopen(req).read()\n  File "/usr/lib/python2.7/urllib2.py", line 127, in urlopen\n    return _opener.open(url, data, timeout)\n  File "/usr/lib/python2.7/urllib2.py", line 404, in open\n    response = self._open(req, data)\n  File "/usr/lib/python2.7/urllib2.py", line 422, in _open\n    \'_open\', req)\n  File "/usr/lib/python2.7/urllib2.py", line 382, in _call_chain\n    result = func(*args)\n  File "/usr/lib/python2.7/urllib2.py", line 1222, in https_open\n    return self.do_open(httplib.HTTPSConnection, req)\n  File "/usr/lib/python2.7/urllib2.py", line 1184, in do_open\n    raise URLError(err)\nURLError: <urlopen error Tunnel connection failed: 407 Proxy Authentication Required>\n'
p398
s.