(dp1
S'output'
p2
S"<class 'urllib2.URLError'> <urlopen error Tunnel connection failed: 407 Proxy Authentication Required>"
p3
sS'layer'
p4
S'/home/ritvik/DatabasesLab/microblogging/web2py/applications/Assignment/controllers/default.py'
p5
sS'code'
p6
S'# -*- coding: utf-8 -*-\n# this file is released under public domain and you can use without limitations\n\n#########################################################################\n## This is a sample controller\n## - index is the default action of any application\n## - user is required for authentication and authorization\n## - download is for downloading files uploaded in the db (does streaming)\n## - api is an example of Hypermedia API support and access control\n#########################################################################\n\ndef index():\n    """\n    example action using the internationalization operator T and flash\n    rendered by views/default/index.html or views/generic.html\n\n    if you need a simple wiki simply replace the two lines below with:\n    return auth.wiki()\n    """\n    if not auth.user:\n        if request.cookies.has_key(\'mycookie\'):\n            value = request.cookies[\'mycookie\'].value\n            value = int(value)\n            user = db.auth_user(value)\n            auth.login_user(user)\n            #redirect(URL(\'user\'))\n        else:\n            redirect(URL(\'user\'))\n    else:\n        response.cookies[\'mycookie\'] = auth.user.id\n        response.cookies[\'mycookie\'][\'expires\'] = 24 * 3600\n        response.cookies[\'mycookie\'][\'path\'] = \'/\'\n    row_list = news()\n    return dict(message=T(\'Hello World\'), row_list = row_list)\n\n\ndef user():\n    """\n    exposes:\n    http://..../[app]/default/user/login\n    http://..../[app]/default/user/logout\n    http://..../[app]/default/user/register\n    http://..../[app]/default/user/profile\n    http://..../[app]/default/user/retrieve_password\n    http://..../[app]/default/user/change_password\n    http://..../[app]/default/user/manage_users (requires membership in\n    use @auth.requires_login()\n        @auth.requires_membership(\'group name\')\n        @auth.requires_permission(\'read\',\'table name\',record_id)\n    to decorate functions that need access control\n    """\n    row_list = news()\n    return dict(form=auth(), row_list = row_list)\n\n\n@cache.action()\ndef download():\n    """\n    allows downloading of uploaded files\n    http://..../[app]/default/download/[filename]\n    """\n    return response.download(request, db)\n\n\ndef call():\n    """\n    exposes services. for example:\n    http://..../[app]/default/call/jsonrpc\n    decorate with @services.jsonrpc the functions to expose\n    supports xml, json, xmlrpc, jsonrpc, amfrpc, rss, csv\n    """\n    return service()\n\n\n@auth.requires_login() \ndef api():\n    """\n    this is example of API with access control\n    WEB2PY provides Hypermedia API (Collection+JSON) Experimental\n    """\n    from gluon.contrib.hypermedia import Collection\n    rules = {\n        \'<tablename>\': {\'GET\':{},\'POST\':{},\'PUT\':{},\'DELETE\':{}},\n        }\n    return Collection(db).process(request,response,rules)\n\ndef news():\n    """\n    fetch news from rss\n    """\n    from datetime import datetime\n    currentDay = datetime.now().day\n    currentMonth = datetime.now().month\n    currentYear = datetime.now().year\n    currentDate = str(currentDay) + \'_\' + str(currentMonth) + \'_\' + str(currentYear)\n    sel=[db.date_string[\'date_string\']]\n    row=db(db.date_string.id == 24).select(*sel).first() # note the *\n    storedDate = row.date_string\n    if storedDate != currentDate:\n        db(db.date_string.id == 24).update(date_string=currentDate)\n        db.commit()\n        feedparser = local_import(\'feedparser\')\n        from BeautifulSoup import BeautifulSoup\n        d = feedparser.parse(\'http://news.google.com/news?pz=1&cf=all&ned=in&hl=en&output=rss\')\n        for field in d[\'entries\']:\n            soup = BeautifulSoup(field[\'description\'])\n            tags=soup.findAll(\'img\')\n            image_link = tags[0][\'src\']\n            link = field[\'link\'].strip().split(\';\')[-1]\n            title = field[\'title\']\n            db.news.insert(title=title,link=link,image_link=image_link)\n        db.commit()\n    sel=[db.news[\'id\'], db.news[\'title\'], db.news[\'link\'], db.news[\'image_link\']]\n    rows = db(db.news.id > 0).select(*sel, orderby=~db.news.id, limitby=(0,10))\n\n    row_list = rows.as_list()\n    return row_list\n\ndef feed():\n    """\n    shows posts on a news\n    """\n    from datetime import datetime\n    news_id = request.vars.id\n    rows = db((db.posts.news_id == news_id) & (db.auth_user.id == db.posts.user_id)).select(orderby=~db.posts.time_stamp)\n    row_list = rows.as_list()\n    return dict(news_vars = request.vars, row_list = row_list)\n\ndef blog():\n    """\n    Writes Blog Post\n    """\n    db.posts.insert(user_id=auth.user.id, body=request.vars.blog, news_id=request.vars.id)\n    redirect(URL(\'default\',\'feed\',vars=dict(request.vars)))\n\ndef comments():\n    db.comments.time_stamp.writable = False\n    db.comments.time_stamp.readable = False\n    db.comments.user_id.writable = False\n    db.comments.user_id.readable = False\n    db.comments.upvotes.writable = False\n    db.comments.upvotes.readable = False\n    db.comments.downvotes.writable = False\n    db.comments.downvotes.readable = False\n    db.comments.post_id.writable = False\n    db.comments.post_id.readable = False\n    db.comments.post_id.default = request.vars.post_id\n    db.comments.user_id.default = auth.user.id\n    \n    form = SQLFORM(db.comments).process()\n    response.flash = None\n    session.flash = None\n    form.element(\'textarea[name=body]\')[\'_style\'] = \'width:250px;height:50px;\'\n    return dict(form=form,\n                comments=db((db.comments.post_id == request.vars.post_id) & (db.comments.user_id == db.auth_user.id)).select())\n\ndef test():\n    return dict()\n\nresponse._vars=response._caller(user)\n'
p7
sS'snapshot'
p8
(dp9
S'exception'
p10
(dp11
S'__module__'
p12
S"'urllib2'"
p13
sS'__getslice__'
p14
S"<method-wrapper '__getslice__' of URLError object>"
p15
sS'__str__'
p16
S"<bound method URLError.__str__ of URLError(error...n failed: 407 Proxy Authentication Required',),)>"
p17
sS'__reduce__'
p18
S'<built-in method __reduce__ of URLError object>'
p19
sS'__dict__'
p20
S"{'reason': error('Tunnel connection failed: 407 Proxy Authentication Required',)}"
p21
sS'__sizeof__'
p22
S'<built-in method __sizeof__ of URLError object>'
p23
sS'__weakref__'
p24
S'None'
p25
sS'__init__'
p26
S"<bound method URLError.__init__ of URLError(erro...n failed: 407 Proxy Authentication Required',),)>"
p27
sS'__setattr__'
p28
S"<method-wrapper '__setattr__' of URLError object>"
p29
sS'__reduce_ex__'
p30
S'<built-in method __reduce_ex__ of URLError object>'
p31
sS'__new__'
p32
S'<built-in method __new__ of type object>'
p33
sS'errno'
p34
S'None'
p35
sS'__format__'
p36
S'<built-in method __format__ of URLError object>'
p37
sS'__class__'
p38
S"<class 'urllib2.URLError'>"
p39
sS'filename'
p40
S'None'
p41
sS'__doc__'
p42
S'None'
p43
sS'__getitem__'
p44
S"<method-wrapper '__getitem__' of URLError object>"
p45
sS'__setstate__'
p46
S'<built-in method __setstate__ of URLError object>'
p47
sS'__getattribute__'
p48
S"<method-wrapper '__getattribute__' of URLError object>"
p49
sS'args'
p50
S"(error('Tunnel connection failed: 407 Proxy Authentication Required',),)"
p51
sS'reason'
p52
S"error('Tunnel connection failed: 407 Proxy Authentication Required',)"
p53
sS'__subclasshook__'
p54
S'<built-in method __subclasshook__ of type object>'
p55
sS'__unicode__'
p56
S'<built-in method __unicode__ of URLError object>'
p57
sS'strerror'
p58
S'None'
p59
sS'__delattr__'
p60
S"<method-wrapper '__delattr__' of URLError object>"
p61
sS'__repr__'
p62
S"<method-wrapper '__repr__' of URLError object>"
p63
sS'__hash__'
p64
S"<method-wrapper '__hash__' of URLError object>"
p65
ssS'evalue'
p66
S'<urlopen error Tunnel connection failed: 407 Proxy Authentication Required>'
p67
sS'request'
p68
cgluon.html
XML_unpickle
p69
(S's\x81}\x00\x00<div><table><tr><td style="font-weight:bold;vertical-align:top;">ajax</td><td style="vertical-align:top;">:</td><td><div>False</div></td></tr><tr><td style="font-weight:bold;vertical-align:top;">application</td><td style="vertical-align:top;">:</td><td><div>Assignment</div></td></tr><tr><td style="font-weight:bold;vertical-align:top;">args</td><td style="vertical-align:top;">:</td><td><div><table><tr><td><div>login</div></td></tr></table></div></td></tr><tr><td style="font-weight:bold;vertical-align:top;">cid</td><td style="vertical-align:top;">:</td><td><div>None</div></td></tr><tr><td style="font-weight:bold;vertical-align:top;">client</td><td style="vertical-align:top;">:</td><td><div>127.0.0.1</div></td></tr><tr><td style="font-weight:bold;vertical-align:top;">controller</td><td style="vertical-align:top;">:</td><td><div>default</div></td></tr><tr><td style="font-weight:bold;vertical-align:top;">cookies</td><td style="vertical-align:top;">:</td><td><div><table><tr><td style="font-weight:bold;vertical-align:top;">expected_tab</td><td style="vertical-align:top;">:</td><td><div>facebook<table><tr><td style="font-weight:bold;vertical-align:top;">comment</td><td style="vertical-align:top;">:</td><td><div></div></td></tr><tr><td style="font-weight:bold;vertical-align:top;">domain</td><td style="vertical-align:top;">:</td><td><div></div></td></tr><tr><td style="font-weight:bold;vertical-align:top;">expires</td><td style="vertical-align:top;">:</td><td><div></div></td></tr><tr><td style="font-weight:bold;vertical-align:top;">httponly</td><td style="vertical-align:top;">:</td><td><div></div></td></tr><tr><td style="font-weight:bold;vertical-align:top;">max-age</td><td style="vertical-align:top;">:</td><td><div></div></td></tr><tr><td style="font-weight:bold;vertical-align:top;">path</td><td style="vertical-align:top;">:</td><td><div></div></td></tr><tr><td style="font-weight:bold;vertical-align:top;">secure</td><td style="vertical-align:top;">:</td><td><div></div></td></tr><tr><td style="font-weight:bold;vertical-align:top;">version</td><td style="vertical-align:top;">:</td><td><div></div></td></tr></table></div></td></tr><tr><td style="font-weight:bold;vertical-align:top;">login_tab</td><td style="vertical-align:top;">:</td><td><div>facebook<table><tr><td style="font-weight:bold;vertical-align:top;">comment</td><td style="vertical-align:top;">:</td><td><div></div></td></tr><tr><td style="font-weight:bold;vertical-align:top;">domain</td><td style="vertical-align:top;">:</td><td><div></div></td></tr><tr><td style="font-weight:bold;vertical-align:top;">expires</td><td style="vertical-align:top;">:</td><td><div></div></td></tr><tr><td style="font-weight:bold;vertical-align:top;">httponly</td><td style="vertical-align:top;">:</td><td><div></div></td></tr><tr><td style="font-weight:bold;vertical-align:top;">max-age</td><td style="vertical-align:top;">:</td><td><div></div></td></tr><tr><td style="font-weight:bold;vertical-align:top;">path</td><td style="vertical-align:top;">:</td><td><div></div></td></tr><tr><td style="font-weight:bold;vertical-align:top;">secure</td><td style="vertical-align:top;">:</td><td><div></div></td></tr><tr><td style="font-weight:bold;vertical-align:top;">version</td><td style="vertical-align:top;">:</td><td><div></div></td></tr></table></div></td></tr><tr><td style="font-weight:bold;vertical-align:top;">session_id_admin</td><td style="vertical-align:top;">:</td><td><div>127.0.0.1-72b010fc-4a53-449b-a198-a2b505cc89db<table><tr><td style="font-weight:bold;vertical-align:top;">comment</td><td style="vertical-align:top;">:</td><td><div></div></td></tr><tr><td style="font-weight:bold;vertical-align:top;">domain</td><td style="vertical-align:top;">:</td><td><div></div></td></tr><tr><td style="font-weight:bold;vertical-align:top;">expires</td><td style="vertical-align:top;">:</td><td><div></div></td></tr><tr><td style="font-weight:bold;vertical-align:top;">httponly</td><td style="vertical-align:top;">:</td><td><div></div></td></tr><tr><td style="font-weight:bold;vertical-align:top;">max-age</td><td style="vertical-align:top;">:</td><td><div></div></td></tr><tr><td style="font-weight:bold;vertical-align:top;">path</td><td style="vertical-align:top;">:</td><td><div></div></td></tr><tr><td style="font-weight:bold;vertical-align:top;">secure</td><td style="vertical-align:top;">:</td><td><div></div></td></tr><tr><td style="font-weight:bold;vertical-align:top;">version</td><td style="vertical-align:top;">:</td><td><div></div></td></tr></table></div></td></tr><tr><td style="font-weight:bold;vertical-align:top;">session_id_assignment</td><td style="vertical-align:top;">:</td><td><div>127.0.0.1-d23a2e6d-5a97-415a-8f2c-9b4e9c53581f<table><tr><td style="font-weight:bold;vertical-align:top;">comment</td><td style="vertical-align:top;">:</td><td><div></div></td></tr><tr><td style="font-weight:bold;vertical-align:top;">domain</td><td style="vertical-align:top;">:</td><td><div></div></td></tr><tr><td style="font-weight:bold;vertical-align:top;">expires</td><td style="vertical-align:top;">:</td><td><div></div></td></tr><tr><td style="font-weight:bold;vertical-align:top;">httponly</td><td style="vertical-align:top;">:</td><td><div></div></td></tr><tr><td style="font-weight:bold;vertical-align:top;">max-age</td><td style="vertical-align:top;">:</td><td><div></div></td></tr><tr><td style="font-weight:bold;vertical-align:top;">path</td><td style="vertical-align:top;">:</td><td><div></div></td></tr><tr><td style="font-weight:bold;vertical-align:top;">secure</td><td style="vertical-align:top;">:</td><td><div></div></td></tr><tr><td style="font-weight:bold;vertical-align:top;">version</td><td style="vertical-align:top;">:</td><td><div></div></td></tr></table></div></td></tr><tr><td style="font-weight:bold;vertical-align:top;">session_id_examples</td><td style="vertical-align:top;">:</td><td><div>True<table><tr><td style="font-weight:bold;vertical-align:top;">comment</td><td style="vertical-align:top;">:</td><td><div></div></td></tr><tr><td style="font-weight:bold;vertical-align:top;">domain</td><td style="vertical-align:top;">:</td><td><div></div></td></tr><tr><td style="font-weight:bold;vertical-align:top;">expires</td><td style="vertical-align:top;">:</td><td><div></div></td></tr><tr><td style="font-weight:bold;vertical-align:top;">httponly</td><td style="vertical-align:top;">:</td><td><div></div></td></tr><tr><td style="font-weight:bold;vertical-align:top;">max-age</td><td style="vertical-align:top;">:</td><td><div></div></td></tr><tr><td style="font-weight:bold;vertical-align:top;">path</td><td style="vertical-align:top;">:</td><td><div></div></td></tr><tr><td style="font-weight:bold;vertical-align:top;">secure</td><td style="vertical-align:top;">:</td><td><div></div></td></tr><tr><td style="font-weight:bold;vertical-align:top;">version</td><td style="vertical-align:top;">:</td><td><div></div></td></tr></table></div></td></tr><tr><td style="font-weight:bold;vertical-align:top;">session_id_redditclone</td><td style="vertical-align:top;">:</td><td><div>127.0.0.1-c8fc38d3-b4bb-419f-846c-4ddbb8393997<table><tr><td style="font-weight:bold;vertical-align:top;">comment</td><td style="vertical-align:top;">:</td><td><div></div></td></tr><tr><td style="font-weight:bold;vertical-align:top;">domain</td><td style="vertical-align:top;">:</td><td><div></div></td></tr><tr><td style="font-weight:bold;vertical-align:top;">expires</td><td style="vertical-align:top;">:</td><td><div></div></td></tr><tr><td style="font-weight:bold;vertical-align:top;">httponly</td><td style="vertical-align:top;">:</td><td><div></div></td></tr><tr><td style="font-weight:bold;vertical-align:top;">max-age</td><td style="vertical-align:top;">:</td><td><div></div></td></tr><tr><td style="font-weight:bold;vertical-align:top;">path</td><td style="vertical-align:top;">:</td><td><div></div></td></tr><tr><td style="font-weight:bold;vertical-align:top;">secure</td><td style="vertical-align:top;">:</td><td><div></div></td></tr><tr><td style="font-weight:bold;vertical-align:top;">version</td><td style="vertical-align:top;">:</td><td><div></div></td></tr></table></div></td></tr><tr><td style="font-weight:bold;vertical-align:top;">session_id_welcome</td><td style="vertical-align:top;">:</td><td><div>127.0.0.1-c1d95725-9c33-4c31-8233-02bd10ea798b<table><tr><td style="font-weight:bold;vertical-align:top;">comment</td><td style="vertical-align:top;">:</td><td><div></div></td></tr><tr><td style="font-weight:bold;vertical-align:top;">domain</td><td style="vertical-align:top;">:</td><td><div></div></td></tr><tr><td style="font-weight:bold;vertical-align:top;">expires</td><td style="vertical-align:top;">:</td><td><div></div></td></tr><tr><td style="font-weight:bold;vertical-align:top;">httponly</td><td style="vertical-align:top;">:</td><td><div></div></td></tr><tr><td style="font-weight:bold;vertical-align:top;">max-age</td><td style="vertical-align:top;">:</td><td><div></div></td></tr><tr><td style="font-weight:bold;vertical-align:top;">path</td><td style="vertical-align:top;">:</td><td><div></div></td></tr><tr><td style="font-weight:bold;vertical-align:top;">secure</td><td style="vertical-align:top;">:</td><td><div></div></td></tr><tr><td style="font-weight:bold;vertical-align:top;">version</td><td style="vertical-align:top;">:</td><td><div></div></td></tr></table></div></td></tr><tr><td style="font-weight:bold;vertical-align:top;">welcome_info_name</td><td style="vertical-align:top;">:</td><td><div>Ritvik%20Saraf<table><tr><td style="font-weight:bold;vertical-align:top;">comment</td><td style="vertical-align:top;">:</td><td><div></div></td></tr><tr><td style="font-weight:bold;vertical-align:top;">domain</td><td style="vertical-align:top;">:</td><td><div></div></td></tr><tr><td style="font-weight:bold;vertical-align:top;">expires</td><td style="vertical-align:top;">:</td><td><div></div></td></tr><tr><td style="font-weight:bold;vertical-align:top;">httponly</td><td style="vertical-align:top;">:</td><td><div></div></td></tr><tr><td style="font-weight:bold;vertical-align:top;">max-age</td><td style="vertical-align:top;">:</td><td><div></div></td></tr><tr><td style="font-weight:bold;vertical-align:top;">path</td><td style="vertical-align:top;">:</td><td><div></div></td></tr><tr><td style="font-weight:bold;vertical-align:top;">secure</td><td style="vertical-align:top;">:</td><td><div></div></td></tr><tr><td style="font-weight:bold;vertical-align:top;">version</td><td style="vertical-align:top;">:</td><td><div></div></td></tr></table></div></td></tr></table></div></td></tr><tr><td style="font-weight:bold;vertical-align:top;">env</td><td style="vertical-align:top;">:</td><td><div><table><tr><td style="font-weight:bold;vertical-align:top;">CONTENT_LENGTH</td><td style="vertical-align:top;">:</td><td><div>46</div></td></tr><tr><td style="font-weight:bold;vertical-align:top;">CONTENT_TYPE</td><td style="vertical-align:top;">:</td><td><div>application/x-www-form-urlencoded</div></td></tr><tr><td style="font-weight:bold;vertical-align:top;">HTTP_ACCEPT</td><td style="vertical-align:top;">:</td><td><div>text/html,application/xhtml+xml,application/xml;q=0.9,image/webp,*/*;q=0.8</div></td></tr><tr><td style="font-weight:bold;vertical-align:top;">HTTP_ACCEPT_ENCODING</td><td style="vertical-align:top;">:</td><td><div>gzip, deflate</div></td></tr><tr><td style="font-weight:bold;vertical-align:top;">HTTP_ACCEPT_LANGUAGE</td><td style="vertical-align:top;">:</td><td><div>en-GB,en-US;q=0.8,en;q=0.6</div></td></tr><tr><td style="font-weight:bold;vertical-align:top;">HTTP_CACHE_CONTROL</td><td style="vertical-align:top;">:</td><td><div>max-age=0</div></td></tr><tr><td style="font-weight:bold;vertical-align:top;">HTTP_CONNECTION</td><td style="vertical-align:top;">:</td><td><div>keep-alive</div></td></tr><tr><td style="font-weight:bold;vertical-align:top;">HTTP_CONTENT_LENGTH</td><td style="vertical-align:top;">:</td><td><div>46</div></td></tr><tr><td style="font-weight:bold;vertical-align:top;">HTTP_CONTENT_TYPE</td><td style="vertical-align:top;">:</td><td><div>application/x-www-form-urlencoded</div></td></tr><tr><td style="font-weight:bold;vertical-align:top;">HTTP_COOKIE</td><td style="vertical-align:top;">:</td><td><div>session_id_examples=True; session_id_redditclone=127.0.0.1-c8fc38d3-b4bb-419f-846c-4ddbb8393997; session_id_welcome=127.0.0.1-c1d95725-9c33-4c31-8233-02bd10ea798b; session_id_admin=127.0.0.1-72b010fc-4a53-449b-a198-a2b505cc89db; session_id_assignment=127.0.0.1-d23a2e6d-5a97-415a-8f2c-9b4e9c53581f; login_tab=facebook; expected_tab=facebook; welcome_info_name=Ritvik%20Saraf</div></td></tr><tr><td style="font-weight:bold;vertical-align:top;">HTTP_HOST</td><td style="vertical-align:top;">:</td><td><div>127.0.0.1:8000</div></td></tr><tr><td style="font-weight:bold;vertical-align:top;">HTTP_ORIGIN</td><td style="vertical-align:top;">:</td><td><div>http://supersample.rpxnow.com</div></td></tr><tr><td style="font-weight:bold;vertical-align:top;">HTTP_REFERER</td><td style="vertical-align:top;">:</td><td><div>http://supersample.rpxnow.com/redirect?loc=750a7616c31ea2061ffc94bc2af4c9ff60ab5cdf</div></td></tr><tr><td style="font-weight:bold;vertical-align:top;">HTTP_USER_AGENT</td><td style="vertical-align:top;">:</td><td><div>Mozilla/5.0 (X11; Linux x86_64) AppleWebKit/537.36 (KHTML, like Gecko) Chrome/41.0.2272.101 Safari/537.36</div></td></tr><tr><td style="font-weight:bold;vertical-align:top;">PATH_INFO</td><td style="vertical-align:top;">:</td><td><div>/Assignment/default/user/login</div></td></tr><tr><td style="font-weight:bold;vertical-align:top;">QUERY_STRING</td><td style="vertical-align:top;">:</td><td><div></div></td></tr><tr><td style="font-weight:bold;vertical-align:top;">REMOTE_ADDR</td><td style="vertical-align:top;">:</td><td><div>127.0.0.1</div></td></tr><tr><td style="font-weight:bold;vertical-align:top;">REMOTE_PORT</td><td style="vertical-align:top;">:</td><td><div>36014</div></td></tr><tr><td style="font-weight:bold;vertical-align:top;">REQUEST_METHOD</td><td style="vertical-align:top;">:</td><td><div>POST</div></td></tr><tr><td style="font-weight:bold;vertical-align:top;">SCRIPT_NAME</td><td style="vertical-align:top;">:</td><td><div></div></td></tr><tr><td style="font-weight:bold;vertical-align:top;">SERVER_NAME</td><td style="vertical-align:top;">:</td><td><div>ritvik-HP-Pavilion-15-Notebook-PC</div></td></tr><tr><td style="font-weight:bold;vertical-align:top;">SERVER_PORT</td><td style="vertical-align:top;">:</td><td><div>8000</div></td></tr><tr><td style="font-weight:bold;vertical-align:top;">SERVER_PROTOCOL</td><td style="vertical-align:top;">:</td><td><div>HTTP/1.1</div></td></tr><tr><td style="font-weight:bold;vertical-align:top;">SERVER_SOFTWARE</td><td style="vertical-align:top;">:</td><td><div>Rocket 1.2.6</div></td></tr><tr><td style="font-weight:bold;vertical-align:top;">app_folders</td><td style="vertical-align:top;">:</td><td><div>set([&#x27;/home/ritvik/DatabasesLab/microblogging/web2py/applications/Assignment/&#x27;, &#x27;/home/ritvik/DatabasesLab/microblogging/web2py/applications/welcome/&#x27;, &#x27;/home/ritvik/DatabasesLab/microblogging/web2py/applications/admin/&#x27;])</div></td></tr><tr><td style="font-weight:bold;vertical-align:top;">applications_parent</td><td style="vertical-align:top;">:</td><td><div>/home/ritvik/DatabasesLab/microblogging/web2py</div></td></tr><tr><td style="font-weight:bold;vertical-align:top;">cmd_args</td><td style="vertical-align:top;">:</td><td><div><table></table></div></td></tr><tr><td style="font-weight:bold;vertical-align:top;">cmd_options</td><td style="vertical-align:top;">:</td><td><div>&lt;Values at 0x7fbaa5d6c7a0: {&#x27;verbose&#x27;: False, &#x27;ip&#x27;: &#x27;127.0.0.1&#x27;, &#x27;debuglevel&#x27;: 30, &#x27;with_scheduler&#x27;: False, &#x27;ips&#x27;: [&#x27;127.0.1.1&#x27;], &#x27;shutdown_timeout&#x27;: 5, &#x27;taskbar&#x27;: False, &#x27;with_coverage&#x27;: False, &#x27;scheduler_groups&#x27;: None, &#x27;port&#x27;: 8000, &#x27;maxthreads&#x27;: None, &#x27;softcron&#x27;: False, &#x27;server_name&#x27;: &#x27;ritvik-HP-Pavilion-15-Notebook-PC&#x27;, &#x27;bpython&#x27;: False, &#x27;nogui&#x27;: False, &#x27;pid_filename&#x27;: &#x27;httpserver.pid&#x27;, &#x27;extcron&#x27;: False, &#x27;runcron&#x27;: False, &#x27;run_system_tests&#x27;: False, &#x27;test&#x27;: None, &#x27;folder&#x27;: &#x27;/home/ritvik/DatabasesLab/microblogging/web2py&#x27;, &#x27;config&#x27;: &#x27;&#x27;, &#x27;minthreads&#x27;: None, &#x27;shell&#x27;: None, &#x27;run&#x27;: &#x27;&#x27;, &#x27;log_filename&#x27;: &#x27;httpserver.log&#x27;, &#x27;profiler_dir&#x27;: None, &#x27;args&#x27;: [&#x27;&#x27;], &#x27;socket_timeout&#x27;: 5, &#x27;ssl_ca_certificate&#x27;: None, &#x27;scheduler&#x27;: None, &#x27;interfaces&#x27;: None, &#x27;ssl_private_key&#x27;: &#x27;&#x27;, &#x27;gae&#x27;: None, &#x27;password&#x27;: &#x27;&lt;ask&gt;&#x27;, &#x27;request_queue_size&#x27;: 5, &#x27;ssl_certificate&#x27;: &#x27;&#x27;, &#x27;cronjob&#x27;: False, &#x27;numthreads&#x27;: None, &#x27;quiet&#x27;: False, &#x27;import_models&#x27;: False, &#x27;timeout&#x27;: 10, &#x27;plain&#x27;: False, &#x27;nobanner&#x27;: False}&gt;</div></td></tr><tr><td style="font-weight:bold;vertical-align:top;">content_length</td><td style="vertical-align:top;">:</td><td><div>46</div></td></tr><tr><td style="font-weight:bold;vertical-align:top;">content_type</td><td style="vertical-align:top;">:</td><td><div>application/x-www-form-urlencoded</div></td></tr><tr><td style="font-weight:bold;vertical-align:top;">db_sessions</td><td style="vertical-align:top;">:</td><td><div>set([])</div></td></tr><tr><td style="font-weight:bold;vertical-align:top;">debugging</td><td style="vertical-align:top;">:</td><td><div>False</div></td></tr><tr><td style="font-weight:bold;vertical-align:top;">gluon_parent</td><td style="vertical-align:top;">:</td><td><div>/home/ritvik/DatabasesLab/microblogging/web2py</div></td></tr><tr><td style="font-weight:bold;vertical-align:top;">http_accept</td><td style="vertical-align:top;">:</td><td><div>text/html,application/xhtml+xml,application/xml;q=0.9,image/webp,*/*;q=0.8</div></td></tr><tr><td style="font-weight:bold;vertical-align:top;">http_accept_encoding</td><td style="vertical-align:top;">:</td><td><div>gzip, deflate</div></td></tr><tr><td style="font-weight:bold;vertical-align:top;">http_accept_language</td><td style="vertical-align:top;">:</td><td><div>en-GB,en-US;q=0.8,en;q=0.6</div></td></tr><tr><td style="font-weight:bold;vertical-align:top;">http_cache_control</td><td style="vertical-align:top;">:</td><td><div>max-age=0</div></td></tr><tr><td style="font-weight:bold;vertical-align:top;">http_connection</td><td style="vertical-align:top;">:</td><td><div>keep-alive</div></td></tr><tr><td style="font-weight:bold;vertical-align:top;">http_content_length</td><td style="vertical-align:top;">:</td><td><div>46</div></td></tr><tr><td style="font-weight:bold;vertical-align:top;">http_content_type</td><td style="vertical-align:top;">:</td><td><div>application/x-www-form-urlencoded</div></td></tr><tr><td style="font-weight:bold;vertical-align:top;">http_cookie</td><td style="vertical-align:top;">:</td><td><div>session_id_examples=True; session_id_redditclone=127.0.0.1-c8fc38d3-b4bb-419f-846c-4ddbb8393997; session_id_welcome=127.0.0.1-c1d95725-9c33-4c31-8233-02bd10ea798b; session_id_admin=127.0.0.1-72b010fc-4a53-449b-a198-a2b505cc89db; session_id_assignment=127.0.0.1-d23a2e6d-5a97-415a-8f2c-9b4e9c53581f; login_tab=facebook; expected_tab=facebook; welcome_info_name=Ritvik%20Saraf</div></td></tr><tr><td style="font-weight:bold;vertical-align:top;">http_host</td><td style="vertical-align:top;">:</td><td><div>127.0.0.1:8000</div></td></tr><tr><td style="font-weight:bold;vertical-align:top;">http_origin</td><td style="vertical-align:top;">:</td><td><div>http://supersample.rpxnow.com</div></td></tr><tr><td style="font-weight:bold;vertical-align:top;">http_referer</td><td style="vertical-align:top;">:</td><td><div>http://supersample.rpxnow.com/redirect?loc=750a7616c31ea2061ffc94bc2af4c9ff60ab5cdf</div></td></tr><tr><td style="font-weight:bold;vertical-align:top;">http_user_agent</td><td style="vertical-align:top;">:</td><td><div>Mozilla/5.0 (X11; Linux x86_64) AppleWebKit/537.36 (KHTML, like Gecko) Chrome/41.0.2272.101 Safari/537.36</div></td></tr><tr><td style="font-weight:bold;vertical-align:top;">is_jython</td><td style="vertical-align:top;">:</td><td><div>False</div></td></tr><tr><td style="font-weight:bold;vertical-align:top;">is_pypy</td><td style="vertical-align:top;">:</td><td><div>False</div></td></tr><tr><td style="font-weight:bold;vertical-align:top;">is_source</td><td style="vertical-align:top;">:</td><td><div>True</div></td></tr><tr><td style="font-weight:bold;vertical-align:top;">local_hosts</td><td style="vertical-align:top;">:</td><td><div><table><tr><td><div>127.0.1.1</div></td></tr><tr><td><div>::1</div></td></tr><tr><td><div>ritvik-HP-Pavilion-15-Notebook-PC</div></td></tr><tr><td><div>::ffff:127.0.0.1</div></td></tr><tr><td><div>127.0.0.1</div></td></tr></table></div></td></tr><tr><td style="font-weight:bold;vertical-align:top;">path_info</td><td style="vertical-align:top;">:</td><td><div>/Assignment/default/user/login</div></td></tr><tr><td style="font-weight:bold;vertical-align:top;">query_string</td><td style="vertical-align:top;">:</td><td><div></div></td></tr><tr><td style="font-weight:bold;vertical-align:top;">remote_addr</td><td style="vertical-align:top;">:</td><td><div>127.0.0.1</div></td></tr><tr><td style="font-weight:bold;vertical-align:top;">remote_port</td><td style="vertical-align:top;">:</td><td><div>36014</div></td></tr><tr><td style="font-weight:bold;vertical-align:top;">request_method</td><td style="vertical-align:top;">:</td><td><div>POST</div></td></tr><tr><td style="font-weight:bold;vertical-align:top;">request_uri</td><td style="vertical-align:top;">:</td><td><div>/Assignment/default/user/login</div></td></tr><tr><td style="font-weight:bold;vertical-align:top;">script_name</td><td style="vertical-align:top;">:</td><td><div></div></td></tr><tr><td style="font-weight:bold;vertical-align:top;">server_name</td><td style="vertical-align:top;">:</td><td><div>ritvik-HP-Pavilion-15-Notebook-PC</div></td></tr><tr><td style="font-weight:bold;vertical-align:top;">server_port</td><td style="vertical-align:top;">:</td><td><div>8000</div></td></tr><tr><td style="font-weight:bold;vertical-align:top;">server_protocol</td><td style="vertical-align:top;">:</td><td><div>HTTP/1.1</div></td></tr><tr><td style="font-weight:bold;vertical-align:top;">server_software</td><td style="vertical-align:top;">:</td><td><div>Rocket 1.2.6</div></td></tr><tr><td style="font-weight:bold;vertical-align:top;">web2py_path</td><td style="vertical-align:top;">:</td><td><div>/home/ritvik/DatabasesLab/microblogging/web2py</div></td></tr><tr><td style="font-weight:bold;vertical-align:top;">web2py_version</td><td style="vertical-align:top;">:</td><td><div>2.9.12-stable+timestamp.2015.01.17.06.11.03</div></td></tr><tr><td style="font-weight:bold;vertical-align:top;">wsgi.errors</td><td style="vertical-align:top;">:</td><td><div>&lt;open file &#x27;&lt;stderr&gt;&#x27;, mode &#x27;w&#x27; at 0x7fbaa949c1e0&gt;</div></td></tr><tr><td style="font-weight:bold;vertical-align:top;">wsgi.file_wrapper</td><td style="vertical-align:top;">:</td><td><div>&lt;class wsgiref.util.FileWrapper at 0x7fbaa5e231f0&gt;</div></td></tr><tr><td style="font-weight:bold;vertical-align:top;">wsgi.input</td><td style="vertical-align:top;">:</td><td><div>&lt;socket._fileobject object at 0x7fbaa0280250&gt;</div></td></tr><tr><td style="font-weight:bold;vertical-align:top;">wsgi.multiprocess</td><td style="vertical-align:top;">:</td><td><div>False</div></td></tr><tr><td style="font-weight:bold;vertical-align:top;">wsgi.multithread</td><td style="vertical-align:top;">:</td><td><div>True</div></td></tr><tr><td style="font-weight:bold;vertical-align:top;">wsgi.run_once</td><td style="vertical-align:top;">:</td><td><div>False</div></td></tr><tr><td style="font-weight:bold;vertical-align:top;">wsgi.url_scheme</td><td style="vertical-align:top;">:</td><td><div>http</div></td></tr><tr><td style="font-weight:bold;vertical-align:top;">wsgi.version</td><td style="vertical-align:top;">:</td><td><div><table><tr><td><div>1</div></td></tr><tr><td><div>0</div></td></tr></table></div></td></tr><tr><td style="font-weight:bold;vertical-align:top;">wsgi_errors</td><td style="vertical-align:top;">:</td><td><div>&lt;open file &#x27;&lt;stderr&gt;&#x27;, mode &#x27;w&#x27; at 0x7fbaa949c1e0&gt;</div></td></tr><tr><td style="font-weight:bold;vertical-align:top;">wsgi_file_wrapper</td><td style="vertical-align:top;">:</td><td><div>&lt;class wsgiref.util.FileWrapper at 0x7fbaa5e231f0&gt;</div></td></tr><tr><td style="font-weight:bold;vertical-align:top;">wsgi_input</td><td style="vertical-align:top;">:</td><td><div>&lt;socket._fileobject object at 0x7fbaa0280250&gt;</div></td></tr><tr><td style="font-weight:bold;vertical-align:top;">wsgi_multiprocess</td><td style="vertical-align:top;">:</td><td><div>False</div></td></tr><tr><td style="font-weight:bold;vertical-align:top;">wsgi_multithread</td><td style="vertical-align:top;">:</td><td><div>True</div></td></tr><tr><td style="font-weight:bold;vertical-align:top;">wsgi_run_once</td><td style="vertical-align:top;">:</td><td><div>False</div></td></tr><tr><td style="font-weight:bold;vertical-align:top;">wsgi_url_scheme</td><td style="vertical-align:top;">:</td><td><div>http</div></td></tr><tr><td style="font-weight:bold;vertical-align:top;">wsgi_version</td><td style="vertical-align:top;">:</td><td><div><table><tr><td><div>1</div></td></tr><tr><td><div>0</div></td></tr></table></div></td></tr></table></div></td></tr><tr><td style="font-weight:bold;vertical-align:top;">extension</td><td style="vertical-align:top;">:</td><td><div>html</div></td></tr><tr><td style="font-weight:bold;vertical-align:top;">folder</td><td style="vertical-align:top;">:</td><td><div>/home/ritvik/DatabasesLab/microblogging/web2py/applications/Assignment/</div></td></tr><tr><td style="font-weight:bold;vertical-align:top;">function</td><td style="vertical-align:top;">:</td><td><div>user</div></td></tr><tr><td style="font-weight:bold;vertical-align:top;">global_settings</td><td style="vertical-align:top;">:</td><td><div><table><tr><td style="font-weight:bold;vertical-align:top;">app_folders</td><td style="vertical-align:top;">:</td><td><div>set([&#x27;/home/ritvik/DatabasesLab/microblogging/web2py/applications/Assignment/&#x27;, &#x27;/home/ritvik/DatabasesLab/microblogging/web2py/applications/welcome/&#x27;, &#x27;/home/ritvik/DatabasesLab/microblogging/web2py/applications/admin/&#x27;])</div></td></tr><tr><td style="font-weight:bold;vertical-align:top;">applications_parent</td><td style="vertical-align:top;">:</td><td><div>/home/ritvik/DatabasesLab/microblogging/web2py</div></td></tr><tr><td style="font-weight:bold;vertical-align:top;">cmd_args</td><td style="vertical-align:top;">:</td><td><div><table></table></div></td></tr><tr><td style="font-weight:bold;vertical-align:top;">cmd_options</td><td style="vertical-align:top;">:</td><td><div>&lt;Values at 0x7fbaa5d6c7a0: {&#x27;verbose&#x27;: False, &#x27;ip&#x27;: &#x27;127.0.0.1&#x27;, &#x27;debuglevel&#x27;: 30, &#x27;with_scheduler&#x27;: False, &#x27;ips&#x27;: [&#x27;127.0.1.1&#x27;], &#x27;shutdown_timeout&#x27;: 5, &#x27;taskbar&#x27;: False, &#x27;with_coverage&#x27;: False, &#x27;scheduler_groups&#x27;: None, &#x27;port&#x27;: 8000, &#x27;maxthreads&#x27;: None, &#x27;softcron&#x27;: False, &#x27;server_name&#x27;: &#x27;ritvik-HP-Pavilion-15-Notebook-PC&#x27;, &#x27;bpython&#x27;: False, &#x27;nogui&#x27;: False, &#x27;pid_filename&#x27;: &#x27;httpserver.pid&#x27;, &#x27;extcron&#x27;: False, &#x27;runcron&#x27;: False, &#x27;run_system_tests&#x27;: False, &#x27;test&#x27;: None, &#x27;folder&#x27;: &#x27;/home/ritvik/DatabasesLab/microblogging/web2py&#x27;, &#x27;config&#x27;: &#x27;&#x27;, &#x27;minthreads&#x27;: None, &#x27;shell&#x27;: None, &#x27;run&#x27;: &#x27;&#x27;, &#x27;log_filename&#x27;: &#x27;httpserver.log&#x27;, &#x27;profiler_dir&#x27;: None, &#x27;args&#x27;: [&#x27;&#x27;], &#x27;socket_timeout&#x27;: 5, &#x27;ssl_ca_certificate&#x27;: None, &#x27;scheduler&#x27;: None, &#x27;interfaces&#x27;: None, &#x27;ssl_private_key&#x27;: &#x27;&#x27;, &#x27;gae&#x27;: None, &#x27;password&#x27;: &#x27;&lt;ask&gt;&#x27;, &#x27;request_queue_size&#x27;: 5, &#x27;ssl_certificate&#x27;: &#x27;&#x27;, &#x27;cronjob&#x27;: False, &#x27;numthreads&#x27;: None, &#x27;quiet&#x27;: False, &#x27;import_models&#x27;: False, &#x27;timeout&#x27;: 10, &#x27;plain&#x27;: False, &#x27;nobanner&#x27;: False}&gt;</div></td></tr><tr><td style="font-weight:bold;vertical-align:top;">db_sessions</td><td style="vertical-align:top;">:</td><td><div>set([])</div></td></tr><tr><td style="font-weight:bold;vertical-align:top;">debugging</td><td style="vertical-align:top;">:</td><td><div>False</div></td></tr><tr><td style="font-weight:bold;vertical-align:top;">gluon_parent</td><td style="vertical-align:top;">:</td><td><div>/home/ritvik/DatabasesLab/microblogging/web2py</div></td></tr><tr><td style="font-weight:bold;vertical-align:top;">is_jython</td><td style="vertical-align:top;">:</td><td><div>False</div></td></tr><tr><td style="font-weight:bold;vertical-align:top;">is_pypy</td><td style="vertical-align:top;">:</td><td><div>False</div></td></tr><tr><td style="font-weight:bold;vertical-align:top;">is_source</td><td style="vertical-align:top;">:</td><td><div>True</div></td></tr><tr><td style="font-weight:bold;vertical-align:top;">local_hosts</td><td style="vertical-align:top;">:</td><td><div><table><tr><td><div>127.0.1.1</div></td></tr><tr><td><div>::1</div></td></tr><tr><td><div>ritvik-HP-Pavilion-15-Notebook-PC</div></td></tr><tr><td><div>::ffff:127.0.0.1</div></td></tr><tr><td><div>127.0.0.1</div></td></tr></table></div></td></tr><tr><td style="font-weight:bold;vertical-align:top;">web2py_version</td><td style="vertical-align:top;">:</td><td><div>2.9.12-stable+timestamp.2015.01.17.06.11.03</div></td></tr></table></div></td></tr><tr><td style="font-weight:bold;vertical-align:top;">is_https</td><td style="vertical-align:top;">:</td><td><div>False</div></td></tr><tr><td style="font-weight:bold;vertical-align:top;">is_local</td><td style="vertical-align:top;">:</td><td><div>True</div></td></tr><tr><td style="font-weight:bold;vertical-align:top;">is_restful</td><td style="vertical-align:top;">:</td><td><div>False</div></td></tr><tr><td style="font-weight:bold;vertical-align:top;">is_sheduler</td><td style="vertical-align:top;">:</td><td><div>None</div></td></tr><tr><td style="font-weight:bold;vertical-align:top;">is_shell</td><td style="vertical-align:top;">:</td><td><div>None</div></td></tr><tr><td style="font-weight:bold;vertical-align:top;">now</td><td style="vertical-align:top;">:</td><td><div>datetime.datetime(2015, 4, 4, 16, 1, 13, 117603)</div></td></tr><tr><td style="font-weight:bold;vertical-align:top;">raw_args</td><td style="vertical-align:top;">:</td><td><div>login</div></td></tr><tr><td style="font-weight:bold;vertical-align:top;">raw_extension</td><td style="vertical-align:top;">:</td><td><div>None</div></td></tr><tr><td style="font-weight:bold;vertical-align:top;">url</td><td style="vertical-align:top;">:</td><td><div>/Assignment/default/user/login</div></td></tr><tr><td style="font-weight:bold;vertical-align:top;">utcnow</td><td style="vertical-align:top;">:</td><td><div>datetime.datetime(2015, 4, 4, 10, 31, 13, 117636)</div></td></tr><tr><td style="font-weight:bold;vertical-align:top;">uuid</td><td style="vertical-align:top;">:</td><td><div>Assignment/127.0.0.1.2015-04-04.16-01-13.e415238c-7021-4d7e-bae4-34981e10aa9b</div></td></tr><tr><td style="font-weight:bold;vertical-align:top;">wsgi</td><td style="vertical-align:top;">:</td><td><div>&lt;gluon.main.LazyWSGI object at 0x7fba986d9490&gt;</div></td></tr></table></div>'
tRp70
sS'frames'
p71
(lp72
(dp73
S'file'
p74
S'/home/ritvik/DatabasesLab/microblogging/web2py/gluon/restricted.py'
p75
sS'dump'
p76
(dp77
S'environment'
p78
S"{'A': <class 'gluon.html.A'>, 'ANY_OF': <class 'gluon.validators.ANY_OF'>, 'ASSIGNJS': <function ASSIGNJS>, 'Auth': <class 'gluon.tools.Auth'>, 'B': <class 'gluon.html.B'>, 'BEAUTIFY': <class 'gluon.html.BEAUTIFY'>, 'BODY': <class 'gluon.html.BODY'>, 'BR': <class 'gluon.html.BR'>, 'BUTTON': <class 'gluon.html.BUTTON'>, 'CAT': <class 'gluon.html.CAT'>, ...}"
p79
sS'ccode'
p80
S'<code object <module> at 0x7fbaa023c830, file "/...ions/Assignment/controllers/default.py", line 12>'
p81
ssS'lnum'
p82
I224
sS'lines'
p83
(dp84
I224
S'        exec ccode in environment'
p85
sI225
S'    except HTTP:'
p86
sI226
S'        raise'
p87
sI227
S'    except RestrictedError:'
p88
sI228
S'        # do not encapsulate (obfuscate) the original RestrictedError'
p89
sI219
S'    try:'
p90
sI220
S'        if isinstance(code, types.CodeType):'
p91
sI221
S'            ccode = code'
p92
sI222
S'        else:'
p93
sI223
S'            ccode = compile2(code, layer)'
p94
ssS'call'
p95
S"(code='# -*- coding: utf-8 -*-\\n# this file is released ...rn dict()\\n\\nresponse._vars=response._caller(user)\\n', environment={'A': <class 'gluon.html.A'>, 'ANY_OF': <class 'gluon.validators.ANY_OF'>, 'ASSIGNJS': <function ASSIGNJS>, 'Auth': <class 'gluon.tools.Auth'>, 'B': <class 'gluon.html.B'>, 'BEAUTIFY': <class 'gluon.html.BEAUTIFY'>, 'BODY': <class 'gluon.html.BODY'>, 'BR': <class 'gluon.html.BR'>, 'BUTTON': <class 'gluon.html.BUTTON'>, 'CAT': <class 'gluon.html.CAT'>, ...}, layer='/home/ritvik/DatabasesLab/microblogging/web2py/applications/Assignment/controllers/default.py')"
p96
sS'func'
p97
S'restricted'
p98
sa(dp99
g74
S'/home/ritvik/DatabasesLab/microblogging/web2py/applications/Assignment/controllers/default.py'
p100
sg76
(dp101
sg82
I160
sg83
(dp102
I149
S''
sI150
S'    form = SQLFORM(db.comments).process()'
p103
sI151
S'    response.flash = None'
p104
sI152
S'    session.flash = None'
p105
sI153
S"    form.element('textarea[name=body]')['_style'] = 'width:250px;height:50px;'"
p106
sI154
S'    return dict(form=form,'
p107
sI155
S'                comments=db((db.comments.post_id == request.vars.post_id) & (db.comments.user_id == db.auth_user.id)).select())'
p108
sI156
S''
sI157
S'def test():'
p109
sI158
S'    return dict()'
p110
ssg95
S'()'
p111
sg97
S'<module>'
p112
sa(dp113
g74
S'/home/ritvik/DatabasesLab/microblogging/web2py/gluon/globals.py'
p114
sg76
(dp115
S'self'
p116
S'undefined'
p117
sS'f'
S'<function user>'
p118
ssg82
I393
sg83
(dp119
I388
S"        self.flash = ''            # used by the default view layout"
p120
sI389
S'        self.meta = Storage()      # used by web2py_ajax.html'
p121
sI390
S'        self.menu = []             # used by the default view layout'
p122
sI391
S'        self.files = []            # used by web2py_ajax.html'
p123
sI392
S'        self._vars = None'
p124
sI393
S'        self._caller = lambda f: f()'
p125
sI394
S'        self._view_environment = None'
p126
sI395
S'        self._custom_commit = None'
p127
sI396
S'        self._custom_rollback = None'
p128
sI397
S"        self.generic_patterns = ['*']"
p129
ssg95
S'(f=<function user>)'
p130
sg97
S'<lambda>'
p131
sa(dp132
g74
S'/home/ritvik/DatabasesLab/microblogging/web2py/applications/Assignment/controllers/default.py'
p133
sg76
(dp134
S'global auth'
p135
S'<gluon.tools.Auth object>'
p136
sS'form'
p137
g117
sS'builtindict'
p138
S"<type 'dict'>"
p139
sS'row_list'
p140
S'[{\'id\': 114L, \'image_link\': \'http://t2.gstatic.com/images?q=tbn:ANd9GcSkQ4N7p...imwQP6qLzVV3ulYbezqPB1aFwceDI_Q3RkwhVThet1Birgwni\', \'link\': \'http://news.google.com/news/url?sa=t&fd=R&ct2=in...jasthan-20983-villages-suffer-crop-damage-2073647\', \'title\': "\'41 killed in rain-related mishaps in Rajasthan;...lages suffer crop damage\' - Daily News & Analysis"}, {\'id\': 113L, \'image_link\': \'http://t0.gstatic.com/images?q=tbn:ANd9GcTGBgnj0...SGGnNr4XOD9cJWCGYprA0cY5rBOLUaUqpVH7Yw9fShvDkd7LI\', \'link\': \'http://news.google.com/news/url?sa=t&fd=R&ct2=in...dents-in-current-session/articleshow/46764379.cms\', \'title\': \'SC refuses quota for Jat students in current session - Times of India\'}, {\'id\': 112L, \'image_link\': \'http://t0.gstatic.com/images?q=tbn:ANd9GcRU11Fw4...b08pol1qbcpWnUVasQK_CiiQPB5NQKJMjIglVal_0R6YqmZk0\', \'link\': \'http://news.google.com/news/url?sa=t&fd=R&ct2=in...sult-china-vietnam-and-india-1427844560?tesla%3Dy\', \'title\': \'Want to Reduce Inequality? Consult China, Vietnam and India - Wall Street Journal\'}, {\'id\': 111L, \'image_link\': \'http://t2.gstatic.com/images?q=tbn:ANd9GcSD5t51p...y_FqSwSzPfgjfHt9Fd6vNMpjE7l0UXw6_dYjABOrOgXXdP5gU\', \'link\': \'http://news.google.com/news/url?sa=t&fd=R&ct2=in...-by-etihad-emirates-flights-over-mumbai-airspace/\', \'title\': \'Probe begins in Emirates, Etihad near-miss incident - The Indian Express\'}, {\'id\': 110L, \'image_link\': \'http://t1.gstatic.com/images?q=tbn:ANd9GcR3SWU_I...ZW01l-jhhjGOgl9-fJahC0VDbZ6ST01LtbdF1ZPvwPoRFH8MI\', \'link\': \'http://news.google.com/news/url?sa=t&fd=R&ct2=in...cigarette-packs-deferred/articleshow/46764405.cms\', \'title\': \'Move to have bigger pictorial warnings on cigarette packs deferred - Times of India\'}, {\'id\': 109L, \'image_link\': \'http://t1.gstatic.com/images?q=tbn:ANd9GcTOtuMUn...WACvqJW5Xjv7gL3zVqP4JEoW1-uMqZFcHK8uoNgI0Ta_xKuzS\', \'link\': \'http://news.google.com/news/url?sa=t&fd=R&ct2=in...ers-in-babri-masjid-case/articleshow/46764423.cms\', \'title\': \'Supreme Court issues notices to LK Advani, MM Joshi & 19 Others in Babri ... - Economic Times\'}, {\'id\': 108L, \'image_link\': \'http://t3.gstatic.com/images?q=tbn:ANd9GcTcQ-TfJ...eYdP9hnS5OkEI8sIM8iINWZmY2ubl5GTxXX7WAaqniGFpEwfo\', \'link\': \'http://news.google.com/news/url?sa=t&fd=R&ct2=in...gation-of-land-ordinance/articleshow/46764545.cms\', \'title\': \'Cabinet okays re-promulgation of land ordinance - Times of India\'}, {\'id\': 107L, \'image_link\': \'http://t2.gstatic.com/images?q=tbn:ANd9GcRfJAgi6...JfH3jaoO8_Q89FNE52ihXoY8NICYAeQoxa930uXRiY9VC9Lbv\', \'link\': \'http://news.google.com/news/url?sa=t&fd=R&ct2=in...al-controversy-escalates/articleshow/46763494.cms\', \'title\': \'Donations to AAP dry up as Bhushan, Yadav vs Arvind Kejriwal controversy ... - Economic Times\'}, {\'id\': 106L, \'image_link\': \'http://t2.gstatic.com/images?q=tbn:ANd9GcSbtnvRy...Vf9UKqe7K7szuMkLEbRYOE7aVCsBgGsoZlN33EHJxIjUOUGI6\', \'link\': \'http://news.google.com/news/url?sa=t&fd=R&ct2=in...-congress-stages-walkout/articleshow/46764402.cms\', \'title\': \'Gujarat state assembly okays anti-terror law; Congress stages walkout - Economic Times\'}, {\'id\': 105L, \'image_link\': \'http://t0.gstatic.com/images?q=tbn:ANd9GcSFrx6cV...n9Hsh5PlWVcSgiF8k3BkvoWIHsXIsFVhCWJuRSghbqDtyPzKc\', \'link\': \'http://news.google.com/news/url?sa=t&fd=R&ct2=in...wait-to-board-ships-home/articleshow/46764473.cms\', \'title\': "Bags packed, Indians can\'t wait to board ships home - Times of India"}]'
p141
ssg82
I53
sg83
(dp142
I48
S"        @auth.requires_membership('group name')"
p143
sI49
S"        @auth.requires_permission('read','table name',record_id)"
p144
sI50
S'    to decorate functions that need access control'
p145
sI51
S'    """'
p146
sI52
S'    row_list = news()'
p147
sI53
S'    return dict(form=auth(), row_list = row_list)'
p148
sI54
S''
sI55
S''
sI56
S'@cache.action()'
p149
sI57
S'def download():'
p150
ssg95
S'()'
p151
sg97
S'user'
p152
sa(dp153
g74
S'/home/ritvik/DatabasesLab/microblogging/web2py/gluon/tools.py'
p154
sg76
(dp155
S'self'
p156
S'<gluon.tools.Auth object>'
p157
sS'args'
p158
S"['login']"
p159
sS'builtingetattr'
p160
S'<built-in function getattr>'
p161
ssg82
I1442
sg83
(dp162
I1440
S'                return getattr(self, args[0])(request.args[1])'
p163
sI1441
S'            else:'
p164
sI1442
S'                return getattr(self, args[0])()'
p165
sI1443
S"        elif args[0] == 'cas' and not self.settings.cas_provider:"
p166
sI1444
S"            if args(1) == self.settings.cas_actions['login']:"
p167
sI1445
S'                return self.cas_login(version=2)'
p168
sI1446
S"            elif args(1) == self.settings.cas_actions['validate']:"
p169
sI1437
S"                       'change_password', 'profile', 'groups',"
p170
sI1438
S"                       'impersonate', 'not_authorized'):"
p171
sI1439
S"            if len(request.args) >= 2 and args[0] == 'impersonate':"
p172
ssg95
S'(self=<gluon.tools.Auth object>)'
p173
sg97
S'__call__'
p174
sa(dp175
g74
S'/home/ritvik/DatabasesLab/microblogging/web2py/gluon/tools.py'
p176
sg76
(dp177
S'cas'
p178
S'<gluon.contrib.login_methods.janrain_account.RPXAccount object>'
p179
sS'cas.get_user'
p180
S'<bound method RPXAccount.get_user of <gluon.cont...login_methods.janrain_account.RPXAccount object>>'
p181
sS'cas_user'
p182
g117
ssg82
I2518
sg83
(dp183
I2513
S'                            self.url(args=request.args, vars=request.get_vars),'
p184
sI2514
S'                            client_side=settings.client_side)'
p185
sI2515
S''
sI2516
S'            else: # use a central authentication server'
p186
sI2517
S'                cas = settings.login_form'
p187
sI2518
S'                cas_user = cas.get_user()'
p188
sI2519
S''
sI2520
S'                if cas_user:'
p189
sI2521
S'                    cas_user[passfield] = None'
p190
sI2522
S'                    user = self.get_or_create_user('
p191
ssg95
S"(self=<gluon.tools.Auth object>, next='/Assignment/default/index', onvalidation=[], onaccept=[], log='User %(id)s Logged-in')"
p192
sg97
S'login'
p193
sa(dp194
g74
S'/home/ritvik/DatabasesLab/microblogging/web2py/gluon/contrib/login_methods/janrain_account.py'
p195
sg76
(dp196
S'auth_info_json'
p197
g117
sS'self'
p198
S'<gluon.contrib.login_methods.janrain_account.RPXAccount object>'
p199
sS'data'
p200
S"'token=a99201155624d8f4008c649e4b0732c66db305e7&apiKey=941bd3cb2586953237867bcbf9cd627e630c6631'"
p201
sS'global fetch'
p202
S'<function fetch>'
p203
sS'self.auth_url'
p204
S"'https://rpxnow.com/api/v2/auth_info'"
p205
ssg82
I85
sg83
(dp206
I80
S'        request = self.request'
p207
sI81
S'        if request.vars.token:'
p208
sI82
S'            user = Storage()'
p209
sI83
S'            data = urllib.urlencode('
p210
sI84
S'                dict(apiKey=self.api_key, token=request.vars.token))'
p211
sI85
S"            auth_info_json = fetch(self.auth_url + '?' + data)"
p212
sI86
S'            auth_info = json.loads(auth_info_json)'
p213
sI87
S''
sI88
S"            if auth_info['stat'] == 'ok':"
p214
sI89
S"                self.profile = auth_info['profile']"
p215
ssg95
S'(self=<gluon.contrib.login_methods.janrain_account.RPXAccount object>)'
p216
sg97
S'get_user'
p217
sa(dp218
g74
S'/home/ritvik/DatabasesLab/microblogging/web2py/gluon/tools.py'
p219
sg76
(dp220
S'urllib2.urlopen'
p221
S'<function urlopen>'
p222
sS'global urllib2'
p223
S"<module 'urllib2' from '/usr/lib/python2.7/urllib2.pyc'>"
p224
sS'html'
p225
g117
sS'req'
p226
S'<urllib2.Request instance>'
p227
sS').read'
p228
g117
ssg82
I4411
sg83
(dp229
I4406
S"        ['%s=%s;' % (c.key, c.value) for c in cookie.values()])"
p230
sI4407
S'    try:'
p231
sI4408
S'        from google.appengine.api import urlfetch'
p232
sI4409
S'    except ImportError:'
p233
sI4410
S'        req = urllib2.Request(url, data, headers)'
p234
sI4411
S'        html = urllib2.urlopen(req).read()'
p235
sI4412
S'    else:'
p236
sI4413
S'        method = ((data is None) and urlfetch.GET) or urlfetch.POST'
p237
sI4414
S'        while url is not None:'
p238
sI4415
S'            response = urlfetch.fetch(url=url, payload=data,'
p239
ssg95
S"(url='https://rpxnow.com/api/v2/auth_info?token=a99201...7&apiKey=941bd3cb2586953237867bcbf9cd627e630c6631', data=None, headers={'Cookie': '', 'User-agent': 'Mozilla/5.0'}, cookie=<SimpleCookie: >, user_agent='Mozilla/5.0')"
p240
sg97
S'fetch'
p241
sa(dp242
g74
S'/usr/lib/python2.7/urllib2.py'
p243
sg76
(dp244
S'_opener.open'
p245
S'<bound method OpenerDirector.open of <urllib2.OpenerDirector instance>>'
p246
sS'url'
p247
S'<urllib2.Request instance>'
p248
sS'data'
p249
S'None'
p250
sS'global _opener'
p251
S'<urllib2.OpenerDirector instance>'
p252
sS'timeout'
p253
S'<object object>'
p254
ssg82
I127
sg83
(dp255
I128
S''
sI129
S'def install_opener(opener):'
p256
sI130
S'    global _opener'
p257
sI131
S'    _opener = opener'
p258
sI122
S'_opener = None'
p259
sI123
S'def urlopen(url, data=None, timeout=socket._GLOBAL_DEFAULT_TIMEOUT):'
p260
sI124
S'    global _opener'
p261
sI125
S'    if _opener is None:'
p262
sI126
S'        _opener = build_opener()'
p263
sI127
S'    return _opener.open(url, data, timeout)'
p264
ssg95
S'(url=<urllib2.Request instance>, data=None, timeout=<object object>)'
p265
sg97
S'urlopen'
p266
sa(dp267
g74
S'/usr/lib/python2.7/urllib2.py'
p268
sg76
(dp269
S'self'
p270
S'<urllib2.OpenerDirector instance>'
p271
sS'req'
p272
S'<urllib2.Request instance>'
p273
sS'data'
p274
S'None'
p275
sS'response'
p276
g117
sS'self._open'
p277
S'<bound method OpenerDirector._open of <urllib2.OpenerDirector instance>>'
p278
ssg82
I404
sg83
(dp279
I399
S'        meth_name = protocol+"_request"'
p280
sI400
S'        for processor in self.process_request.get(protocol, []):'
p281
sI401
S'            meth = getattr(processor, meth_name)'
p282
sI402
S'            req = meth(req)'
p283
sI403
S''
sI404
S'        response = self._open(req, data)'
p284
sI405
S''
sI406
S'        # post-process response'
p285
sI407
S'        meth_name = protocol+"_response"'
p286
sI408
S'        for processor in self.process_response.get(protocol, []):'
p287
ssg95
S'(self=<urllib2.OpenerDirector instance>, fullurl=<urllib2.Request instance>, data=None, timeout=<object object>)'
p288
sg97
S'open'
p289
sa(dp290
g74
S'/usr/lib/python2.7/urllib2.py'
p291
sg76
(dp292
S'req'
p293
S'<urllib2.Request instance>'
p294
ssg82
I422
sg83
(dp295
I417
S'        if result:'
p296
sI418
S'            return result'
p297
sI419
S''
sI420
S'        protocol = req.get_type()'
p298
sI421
S'        result = self._call_chain(self.handle_open, protocol, protocol +'
p299
sI422
S"                                  '_open', req)"
p300
sI423
S'        if result:'
p301
sI424
S'            return result'
p302
sI425
S''
sI426
S"        return self._call_chain(self.handle_open, 'unknown',"
p303
ssg95
S'(self=<urllib2.OpenerDirector instance>, req=<urllib2.Request instance>, data=None)'
p304
sg97
S'_open'
p305
sa(dp306
g74
S'/usr/lib/python2.7/urllib2.py'
p307
sg76
(dp308
S'args'
p309
S'(<urllib2.Request instance>,)'
p310
sS'result'
p311
S'None'
p312
sS'func'
p313
S'<bound method HTTPSHandler.https_open of <urllib2.HTTPSHandler instance>>'
p314
ssg82
I382
sg83
(dp315
I384
S'                return result'
p316
sI385
S''
sI386
S'    def open(self, fullurl, data=None, timeout=socket._GLOBAL_DEFAULT_TIMEOUT):'
p317
sI377
S'        # could.  Otherwise, they return the response.'
p318
sI378
S'        handlers = chain.get(kind, ())'
p319
sI379
S'        for handler in handlers:'
p320
sI380
S'            func = getattr(handler, meth_name)'
p321
sI381
S''
sI382
S'            result = func(*args)'
p322
sI383
S'            if result is not None:'
p323
ssg95
S"(self=<urllib2.OpenerDirector instance>, chain={'all': [<urllib2.ProxyHandler instance>], 'file': [<urllib2.FileHandler instance>], 'ftp': [<urllib2.ProxyHandler instance>, <urllib2.FTPHandler instance>], 'http': [<urllib2.ProxyHandler instance>, <urllib2.HTTPHandler instance>], 'https': [<urllib2.ProxyHandler instance>, <urllib2.HTTPSHandler instance>], 'no': [<urllib2.ProxyHandler instance>], 'socks': [<urllib2.ProxyHandler instance>], 'unknown': [<urllib2.UnknownHandler instance>]}, kind='https', meth_name='https_open', *args=(<urllib2.Request instance>,))"
p324
sg97
S'_call_chain'
p325
sa(dp326
g74
S'/usr/lib/python2.7/urllib2.py'
p327
sg76
(dp328
S'self'
p329
S'<urllib2.HTTPSHandler instance>'
p330
sS'req'
p331
S'<urllib2.Request instance>'
p332
sS'global httplib'
p333
S"<module 'httplib' from '/usr/lib/python2.7/httplib.pyc'>"
p334
sS'self.do_open'
p335
S'<bound method HTTPSHandler.do_open of <urllib2.HTTPSHandler instance>>'
p336
sS'httplib.HTTPSConnection'
p337
S'<class httplib.HTTPSConnection>'
p338
ssg82
I1222
sg83
(dp339
I1217
S''
sI1218
S"if hasattr(httplib, 'HTTPS'):"
p340
sI1219
S'    class HTTPSHandler(AbstractHTTPHandler):'
p341
sI1220
S''
sI1221
S'        def https_open(self, req):'
p342
sI1222
S'            return self.do_open(httplib.HTTPSConnection, req)'
p343
sI1223
S''
sI1224
S'        https_request = AbstractHTTPHandler.do_request_'
p344
sI1225
S''
sI1226
S'class HTTPCookieProcessor(BaseHandler):'
p345
ssg95
S'(self=<urllib2.HTTPSHandler instance>, req=<urllib2.Request instance>)'
p346
sg97
S'https_open'
p347
sa(dp348
g74
S'/usr/lib/python2.7/urllib2.py'
p349
sg76
(dp350
S'err'
p351
S"error('Tunnel connection failed: 407 Proxy Authentication Required',)"
p352
sS'global URLError'
p353
S"<class 'urllib2.URLError'>"
p354
ssg82
I1184
sg83
(dp355
I1184
S'            raise URLError(err)'
p356
sI1185
S'        else:'
p357
sI1186
S'            try:'
p358
sI1187
S'                r = h.getresponse(buffering=True)'
p359
sI1188
S'            except TypeError: # buffering kw not supported'
p360
sI1179
S''
sI1180
S'        try:'
p361
sI1181
S'            h.request(req.get_method(), req.get_selector(), req.data, headers)'
p362
sI1182
S'        except socket.error, err: # XXX what error?'
p363
sI1183
S'            h.close()'
p364
ssg95
S'(self=<urllib2.HTTPSHandler instance>, http_class=<class httplib.HTTPSConnection>, req=<urllib2.Request instance>)'
p365
sg97
S'do_open'
p366
sasS'pyver'
p367
S'Python 2.7.6: /usr/bin/python (prefix: /usr)'
p368
sS'session'
p369
g69
(S's\x1a\x00\x00\x00<div><table></table></div>'
tRp370
sS'etype'
p371
S"<class 'urllib2.URLError'>"
p372
sS'date'
p373
S'Sat Apr  4 16:01:13 2015'
p374
sS'response'
p375
g69
(S's\xa41\x00\x00<div><table><tr><td style="font-weight:bold;vertical-align:top;">body</td><td style="vertical-align:top;">:</td><td><div>&lt;cStringIO.StringO object at 0x7fba98648ae8&gt;</div></td></tr><tr><td style="font-weight:bold;vertical-align:top;">cookies</td><td style="vertical-align:top;">:</td><td><div><table><tr><td style="font-weight:bold;vertical-align:top;">session_id_assignment</td><td style="vertical-align:top;">:</td><td><div>127.0.0.1-a6a4706c-9f40-4b11-a305-07a91adc292c<table><tr><td style="font-weight:bold;vertical-align:top;">comment</td><td style="vertical-align:top;">:</td><td><div></div></td></tr><tr><td style="font-weight:bold;vertical-align:top;">domain</td><td style="vertical-align:top;">:</td><td><div></div></td></tr><tr><td style="font-weight:bold;vertical-align:top;">expires</td><td style="vertical-align:top;">:</td><td><div></div></td></tr><tr><td style="font-weight:bold;vertical-align:top;">httponly</td><td style="vertical-align:top;">:</td><td><div></div></td></tr><tr><td style="font-weight:bold;vertical-align:top;">max-age</td><td style="vertical-align:top;">:</td><td><div></div></td></tr><tr><td style="font-weight:bold;vertical-align:top;">path</td><td style="vertical-align:top;">:</td><td><div>/</div></td></tr><tr><td style="font-weight:bold;vertical-align:top;">secure</td><td style="vertical-align:top;">:</td><td><div></div></td></tr><tr><td style="font-weight:bold;vertical-align:top;">version</td><td style="vertical-align:top;">:</td><td><div></div></td></tr></table></div></td></tr></table></div></td></tr><tr><td style="font-weight:bold;vertical-align:top;">delimiters</td><td style="vertical-align:top;">:</td><td><div><table><tr><td><div>{{</div></td></tr><tr><td><div>}}</div></td></tr></table></div></td></tr><tr><td style="font-weight:bold;vertical-align:top;">files</td><td style="vertical-align:top;">:</td><td><div><table></table></div></td></tr><tr><td style="font-weight:bold;vertical-align:top;">flash</td><td style="vertical-align:top;">:</td><td><div></div></td></tr><tr><td style="font-weight:bold;vertical-align:top;">form_label_separator</td><td style="vertical-align:top;">:</td><td><div>: </div></td></tr><tr><td style="font-weight:bold;vertical-align:top;">formstyle</td><td style="vertical-align:top;">:</td><td><div>table3cols</div></td></tr><tr><td style="font-weight:bold;vertical-align:top;">generic_patterns</td><td style="vertical-align:top;">:</td><td><div><table><tr><td><div>*</div></td></tr></table></div></td></tr><tr><td style="font-weight:bold;vertical-align:top;">google_analytics_id</td><td style="vertical-align:top;">:</td><td><div>None</div></td></tr><tr><td style="font-weight:bold;vertical-align:top;">headers</td><td style="vertical-align:top;">:</td><td><div><table><tr><td style="font-weight:bold;vertical-align:top;">X-Powered-By</td><td style="vertical-align:top;">:</td><td><div>web2py</div></td></tr></table></div></td></tr><tr><td style="font-weight:bold;vertical-align:top;">logo</td><td style="vertical-align:top;">:</td><td><div><a class="brand" href="http://www.web2py.com/"><b>web<span>2</span>py</b>&trade;&nbsp;</a></div></td></tr><tr><td style="font-weight:bold;vertical-align:top;">menu</td><td style="vertical-align:top;">:</td><td><div><table><tr><td><div><table><tr><td><div>Home</div></td></tr><tr><td><div>False</div></td></tr><tr><td><div>/Assignment/default/index</div></td></tr><tr><td><div><table></table></div></td></tr></table></div></td></tr><tr><td><div><table><tr><td><div><span class="highlighted">web2py</span></div></td></tr><tr><td><div>False</div></td></tr><tr><td><div>http://web2py.com</div></td></tr><tr><td><div><table><tr><td><div><table><tr><td><div>My Sites</div></td></tr><tr><td><div>False</div></td></tr><tr><td><div>/admin/default/site</div></td></tr></table></div></td></tr><tr><td><div><table><tr><td><div>This App</div></td></tr><tr><td><div>False</div></td></tr><tr><td><div>/admin/default/design/Assignment</div></td></tr><tr><td><div>[(&lt;lazyT &#x27;Controller&#x27;&gt;, False, &#x27;/admin/default/edit/Assignment/controllers/default.py&#x27;), (&lt;lazyT &#x27;View&#x27;&gt;, False, &#x27;/admin/default/edit/Assignment/views/default/user.html&#x27;), (&lt;lazyT &#x27;Layout&#x27;&gt;, False, &#x27;/admin/default/edit/Assignment/views/layout.html&#x27;), (&lt;lazyT &#x27;Stylesheet&#x27;&gt;, False, &#x27;/admin/default/edit/Assignment/static/css/web2py.css&#x27;), (&lt;lazyT &#x27;DB Model&#x27;&gt;, False, &#x27;/admin/default/edit/Assignment/models/db.py&#x27;), (&lt;lazyT &#x27;Menu Model&#x27;&gt;, False, &#x27;/admin/default/edit/Assignment/models/menu.py&#x27;), (&lt;lazyT &#x27;Database&#x27;&gt;, False, &#x27;/Assignment/appadmin/index&#x27;), (&lt;lazyT &#x27;Errors&#x27;&gt;, False, &#x27;/admin/default/errors/Assignment&#x27;), (&lt;lazyT &#x27;About&#x27;&gt;, False, &#x27;/admin/default/about/Assignment&#x27;)]</div></td></tr></table></div></td></tr><tr><td><div><table><tr><td><div>web2py.com</div></td></tr><tr><td><div>False</div></td></tr><tr><td><div>http://www.web2py.com</div></td></tr><tr><td><div>[(&lt;lazyT &#x27;Download&#x27;&gt;, False, &#x27;http://www.web2py.com/examples/default/download&#x27;), (&lt;lazyT &#x27;Support&#x27;&gt;, False, &#x27;http://www.web2py.com/examples/default/support&#x27;), (&lt;lazyT &#x27;Demo&#x27;&gt;, False, &#x27;http://web2py.com/demo_admin&#x27;), (&lt;lazyT &#x27;Quick Examples&#x27;&gt;, False, &#x27;http://web2py.com/examples/default/examples&#x27;), (&lt;lazyT &#x27;FAQ&#x27;&gt;, False, &#x27;http://web2py.com/AlterEgo&#x27;), (&lt;lazyT &#x27;Videos&#x27;&gt;, False, &#x27;http://www.web2py.com/examples/default/videos/&#x27;), (&lt;lazyT &#x27;Free Applications&#x27;&gt;, False, &#x27;http://web2py.com/appliances&#x27;), (&lt;lazyT &#x27;Plugins&#x27;&gt;, False, &#x27;http://web2py.com/plugins&#x27;), (&lt;lazyT &#x27;Layouts&#x27;&gt;, False, &#x27;http://web2py.com/layouts&#x27;), (&lt;lazyT &#x27;Recipes&#x27;&gt;, False, &#x27;http://web2pyslices.com/&#x27;), (&lt;lazyT &#x27;Semantic&#x27;&gt;, False, &#x27;http://web2py.com/semantic&#x27;)]</div></td></tr></table></div></td></tr><tr><td><div><table><tr><td><div>Documentation</div></td></tr><tr><td><div>False</div></td></tr><tr><td><div>http://www.web2py.com/book</div></td></tr><tr><td><div>[(&lt;lazyT &#x27;Preface&#x27;&gt;, False, &#x27;http://www.web2py.com/book/default/chapter/00&#x27;), (&lt;lazyT &#x27;Introduction&#x27;&gt;, False, &#x27;http://www.web2py.com/book/default/chapter/01&#x27;), (&lt;lazyT &#x27;Python&#x27;&gt;, False, &#x27;http://www.web2py.com/book/default/chapter/02&#x27;), (&lt;lazyT &#x27;Overview&#x27;&gt;, False, &#x27;http://www.web2py.com/book/default/chapter/03&#x27;), (&lt;lazyT &#x27;The Core&#x27;&gt;, False, &#x27;http://www.web2py.com/book/default/chapter/04&#x27;), (&lt;lazyT &#x27;The Views&#x27;&gt;, False, &#x27;http://www.web2py.com/book/default/chapter/05&#x27;), (&lt;lazyT &#x27;Database&#x27;&gt;, False, &#x27;http://www.web2py.com/book/default/chapter/06&#x27;), (&lt;lazyT &#x27;Forms and Validators&#x27;&gt;, False, &#x27;http://www.web2py.com/book/default/chapter/07&#x27;), (&lt;lazyT &#x27;Email and SMS&#x27;&gt;, False, &#x27;http://www.web2py.com/book/default/chapter/08&#x27;), (&lt;lazyT &#x27;Access Control&#x27;&gt;, False, &#x27;http://www.web2py.com/book/default/chapter/09&#x27;), (&lt;lazyT &#x27;Services&#x27;&gt;, False, &#x27;http://www.web2py.com/book/default/chapter/10&#x27;), (&lt;lazyT &#x27;Ajax Recipes&#x27;&gt;, False, &#x27;http://www.web2py.com/book/default/chapter/11&#x27;), (&lt;lazyT &#x27;Components and Plugins&#x27;&gt;, False, &#x27;http://www.web2py.com/book/default/chapter/12&#x27;), (&lt;lazyT &#x27;Deployment Recipes&#x27;&gt;, False, &#x27;http://www.web2py.com/book/default/chapter/13&#x27;), (&lt;lazyT &#x27;Other Recipes&#x27;&gt;, False, &#x27;http://www.web2py.com/book/default/chapter/14&#x27;), (&lt;lazyT &#x27;Buy this book&#x27;&gt;, False, &#x27;http://stores.lulu.com/web2py&#x27;)]</div></td></tr></table></div></td></tr><tr><td><div><table><tr><td><div>Community</div></td></tr><tr><td><div>False</div></td></tr><tr><td><div>None</div></td></tr><tr><td><div>[(&lt;lazyT &#x27;Groups&#x27;&gt;, False, &#x27;http://www.web2py.com/examples/default/usergroups&#x27;), (&lt;lazyT &#x27;Twitter&#x27;&gt;, False, &#x27;http://twitter.com/web2py&#x27;), (&lt;lazyT &#x27;Live Chat&#x27;&gt;, False, &#x27;http://webchat.freenode.net/?channels=web2py&#x27;)]</div></td></tr></table></div></td></tr><tr><td><div><table><tr><td><div>Plugins</div></td></tr><tr><td><div>False</div></td></tr><tr><td><div>None</div></td></tr><tr><td><div>[(&#x27;plugin_wiki&#x27;, False, &#x27;http://web2py.com/examples/default/download&#x27;), (&lt;lazyT &#x27;Other Plugins&#x27;&gt;, False, &#x27;http://web2py.com/plugins&#x27;), (&lt;lazyT &#x27;Layout Plugins&#x27;&gt;, False, &#x27;http://web2py.com/layouts&#x27;)]</div></td></tr></table></div></td></tr></table></div></td></tr></table></div></td></tr></table></div></td></tr><tr><td style="font-weight:bold;vertical-align:top;">meta</td><td style="vertical-align:top;">:</td><td><div><table><tr><td style="font-weight:bold;vertical-align:top;">author</td><td style="vertical-align:top;">:</td><td><div>Your Name &lt;you@example.com&gt;</div></td></tr><tr><td style="font-weight:bold;vertical-align:top;">generator</td><td style="vertical-align:top;">:</td><td><div>Web2py Web Framework</div></td></tr><tr><td style="font-weight:bold;vertical-align:top;">keywords</td><td style="vertical-align:top;">:</td><td><div>web2py, python, framework</div></td></tr></table></div></td></tr><tr><td style="font-weight:bold;vertical-align:top;">models_to_run</td><td style="vertical-align:top;">:</td><td><div><table><tr><td><div>^\\w+\\.py$</div></td></tr><tr><td><div>^default/\\w+\\.py$</div></td></tr><tr><td><div>^default/user/\\w+\\.py$</div></td></tr></table></div></td></tr><tr><td style="font-weight:bold;vertical-align:top;">postprocessing</td><td style="vertical-align:top;">:</td><td><div><table></table></div></td></tr><tr><td style="font-weight:bold;vertical-align:top;">session_client</td><td style="vertical-align:top;">:</td><td><div>127.0.0.1</div></td></tr><tr><td style="font-weight:bold;vertical-align:top;">session_cookie_compression_level</td><td style="vertical-align:top;">:</td><td><div>None</div></td></tr><tr><td style="font-weight:bold;vertical-align:top;">session_cookie_expires</td><td style="vertical-align:top;">:</td><td><div>None</div></td></tr><tr><td style="font-weight:bold;vertical-align:top;">session_cookie_key</td><td style="vertical-align:top;">:</td><td><div>None</div></td></tr><tr><td style="font-weight:bold;vertical-align:top;">session_data_name</td><td style="vertical-align:top;">:</td><td><div>session_data_assignment</div></td></tr><tr><td style="font-weight:bold;vertical-align:top;">session_file</td><td style="vertical-align:top;">:</td><td><div>None</div></td></tr><tr><td style="font-weight:bold;vertical-align:top;">session_filename</td><td style="vertical-align:top;">:</td><td><div>/home/ritvik/DatabasesLab/microblogging/web2py/applications/Assignment/sessions/127.0.0.1-a6a4706c-9f40-4b11-a305-07a91adc292c</div></td></tr><tr><td style="font-weight:bold;vertical-align:top;">session_hash</td><td style="vertical-align:top;">:</td><td><div>c0762cbf4baf7f9af97c051e7fcb8083</div></td></tr><tr><td style="font-weight:bold;vertical-align:top;">session_id</td><td style="vertical-align:top;">:</td><td><div>127.0.0.1-a6a4706c-9f40-4b11-a305-07a91adc292c</div></td></tr><tr><td style="font-weight:bold;vertical-align:top;">session_id_name</td><td style="vertical-align:top;">:</td><td><div>session_id_assignment</div></td></tr><tr><td style="font-weight:bold;vertical-align:top;">session_masterapp</td><td style="vertical-align:top;">:</td><td><div>Assignment</div></td></tr><tr><td style="font-weight:bold;vertical-align:top;">session_new</td><td style="vertical-align:top;">:</td><td><div>True</div></td></tr><tr><td style="font-weight:bold;vertical-align:top;">session_storage_type</td><td style="vertical-align:top;">:</td><td><div>file</div></td></tr><tr><td style="font-weight:bold;vertical-align:top;">status</td><td style="vertical-align:top;">:</td><td><div>200</div></td></tr><tr><td style="font-weight:bold;vertical-align:top;">subtitle</td><td style="vertical-align:top;">:</td><td><div></div></td></tr><tr><td style="font-weight:bold;vertical-align:top;">title</td><td style="vertical-align:top;">:</td><td><div>Assignment</div></td></tr><tr><td style="font-weight:bold;vertical-align:top;">view</td><td style="vertical-align:top;">:</td><td><div>default/user.html</div></td></tr></table></div>'
tRp376
sS'locals'
p377
(dp378
S'proxy_auth_hdr'
p379
S"'Proxy-Authorization'"
p380
sS'err'
p381
S"error('Tunnel connection failed: 407 Proxy Authentication Required',)"
p382
sS'h'
S'<httplib.HTTPSConnection instance>'
p383
sS'self'
p384
S'<urllib2.HTTPSHandler instance>'
p385
sS'req'
p386
S'<urllib2.Request instance>'
p387
sS'headers'
p388
S"{'Connection': 'close', 'Cookie': '', 'Host': 'rpxnow.com', 'User-Agent': 'Mozilla/5.0'}"
p389
sS'host'
p390
S"'202.141.80.20:3128'"
p391
sS'http_class'
p392
S'<class httplib.HTTPSConnection>'
p393
sS'tunnel_headers'
p394
S'{}'
p395
sssS'traceback'
p396
S'Traceback (most recent call last):\n  File "/home/ritvik/DatabasesLab/microblogging/web2py/gluon/restricted.py", line 224, in restricted\n    exec ccode in environment\n  File "/home/ritvik/DatabasesLab/microblogging/web2py/applications/Assignment/controllers/default.py", line 160, in <module>\n  File "/home/ritvik/DatabasesLab/microblogging/web2py/gluon/globals.py", line 393, in <lambda>\n    self._caller = lambda f: f()\n  File "/home/ritvik/DatabasesLab/microblogging/web2py/applications/Assignment/controllers/default.py", line 53, in user\n    return dict(form=auth(), row_list = row_list)\n  File "/home/ritvik/DatabasesLab/microblogging/web2py/gluon/tools.py", line 1442, in __call__\n    return getattr(self, args[0])()\n  File "/home/ritvik/DatabasesLab/microblogging/web2py/gluon/tools.py", line 2518, in login\n    cas_user = cas.get_user()\n  File "/home/ritvik/DatabasesLab/microblogging/web2py/gluon/contrib/login_methods/janrain_account.py", line 85, in get_user\n    auth_info_json = fetch(self.auth_url + \'?\' + data)\n  File "/home/ritvik/DatabasesLab/microblogging/web2py/gluon/tools.py", line 4411, in fetch\n    html = urllib2.urlopen(req).read()\n  File "/usr/lib/python2.7/urllib2.py", line 127, in urlopen\n    return _opener.open(url, data, timeout)\n  File "/usr/lib/python2.7/urllib2.py", line 404, in open\n    response = self._open(req, data)\n  File "/usr/lib/python2.7/urllib2.py", line 422, in _open\n    \'_open\', req)\n  File "/usr/lib/python2.7/urllib2.py", line 382, in _call_chain\n    result = func(*args)\n  File "/usr/lib/python2.7/urllib2.py", line 1222, in https_open\n    return self.do_open(httplib.HTTPSConnection, req)\n  File "/usr/lib/python2.7/urllib2.py", line 1184, in do_open\n    raise URLError(err)\nURLError: <urlopen error Tunnel connection failed: 407 Proxy Authentication Required>\n'
p397
s.