(dp1
S'output'
p2
S'missing "pass" in view'
p3
sS'layer'
p4
S'ParserContainer'
p5
sS'code'
p6
S'sidebar_enabled=False\nresponse.write(\'\\n\', escape=False)\nresponse.files.append(URL(\'static\',\'css/vote.css\'))\nresponse.write(\'\\n\', escape=False)\nresponse.files.append(URL(\'static\',\'js/vote.js\'))\nresponse.write(\'\\n\', escape=False)\nresponse.write(\'<!DOCTYPE html PUBLIC "-//W3C//DTD XHTML 1.0 Strict//EN" "http://www.w3.org/TR/xhtml1/DTD/xhtml1-strict.dtd">\\n<!--\\n\\nDesign by Free CSS Templates\\nhttp://www.freecsstemplates.org\\nReleased for free under a Creative Commons Attribution 2.5 License\\n\\nTitle      : FlashyWeb\\nVersion    : 1.0\\nReleased   : 20081102\\nDescription: A two-column, fixed-width and lightweight template ideal for 1024x768 resolutions. Suitable for blogs and small websites.\\n\\n-->\\n<html xmlns="http://www.w3.org/1999/xhtml">\\n <head>\\n  <title>\\n   \', escape=False)\nresponse.write(response.title or request.application)\nresponse.write(\'\\n  </title>\\n  \', escape=False)\nresponse.files.append(URL(request.application,\'static\',\'plugin_layouts/layouts/FlashyWeb/default.css\'))\nresponse.write(\'\\n  \', escape=False)\nresponse.files.append(URL(\'static\',\'plugin_layouts/superfish.js\'))\nresponse.write(\'\\n  \', escape=False)\nresponse.write(\'<script type="text/javascript"><!--\\n    // These variables are used by the web2py_ajax_init function in web2py_ajax.js (which is loaded below).\\n    var w2p_ajax_confirm_message = "\', escape=False)\nresponse.write(T(\'Are you sure you want to delete this object?\'))\nresponse.write(\'";\\n    var w2p_ajax_disable_with_message = "\', escape=False)\nresponse.write(T(\'Working...\'))\nresponse.write(\'";\\n    var w2p_ajax_date_format = "\', escape=False)\nresponse.write(T(\'%Y-%m-%d\'))\nresponse.write(\'";\\n    var w2p_ajax_datetime_format = "\', escape=False)\nresponse.write(T(\'%Y-%m-%d %H:%M:%S\'))\nresponse.write(\'";\\n    var ajax_error_500 = \\\'\', escape=False)\nresponse.write(T.M(\'An error occured, please [[reload %s]] the page\') % URL(args=request.args, vars=request.get_vars))\nresponse.write("\'\\n    //--></script>\\n", escape=False)\nresponse.files.insert(0,URL(\'static\',\'js/jquery.js\'))\nresponse.files.insert(1,URL(\'static\',\'css/calendar.css\'))\nresponse.files.insert(2,URL(\'static\',\'js/calendar.js\'))\nresponse.files.insert(3,URL(\'static\',\'js/web2py.js\'))\nresponse.include_meta()\nresponse.include_files()\nresponse.write(\'\\n\', escape=False)\nresponse.write(\'\\n  <style>\\nul.web2py-menu-vertical { width: 150px; position: relative; top:1em; left:1em;  z-index:30; border:0; margin:0; padding: 0; list-style: none; text-decoration: none;}\\nul.web2py-menu-vertical li { margin:0; padding:0; border:0; width: 150px; background: black; text-align:left;}\\nul.web2py-menu-vertical li a { margin:0; padding: 1px 3px 1px 3px; border:0; width: 144px; color: white; font-size:12px;}\\ndiv.flash { margin: 5%; float: center; position: absolute; padding: 10px; opacity: 0.75; text-align: center; clear: both; color: #fff; font-size: 20pt; text-align: center; vertical-align: middle; cursor: pointer; background: black; border: 2px solid #fff; -moz-border-radius: 5px; -webkit-border-radius: 5px; z-index: 2; }\\ndiv.error { background-color: red; color: white; padding: 3px; }\\n.auth_navbar { text-align:right; z-index:20; position: absolute; top: 2px; right:30px; border:0; padding:0 }\\n  </style>\\n </head>\\n <body>\\n  <!-- start header -->\\n  \', escape=False)\ntry:\n    response.write(auth.navbar(action=URL(\'default\',\'user\')))\nexcept:pass\nresponse.write(\'\\n\\n  <!-- start header -->\\n  <div id="header">\\n   <div id="logo">\\n    <h1>\\n     BlogNews\\n    </h1>\\n    <h2>\\n     Write about News\\n    </h2>\\n   </div>\\n   <div id="menu">\\n    \', escape=False)\nresponse.write(MENU(response.menu,_class=\'web2py-menu\'))\nresponse.write(\'\\n    <script>\\n      jQuery(document).ready(function(){jQuery(\\\'ul.web2py-menu\\\').superfish({delay:400});});\\n    </script>\\n   </div>\\n  </div>\\n  <!-- end header -->\\n  <!-- start page -->\\n  <div id="page">\\n   <!-- start content -->\\n   <div id="content">\\n    <div class="flash">\', escape=False)\nresponse.write(response.flash or \'\')\nresponse.write(\'</div>\\n    \', escape=False)\nresponse.write(\'\\n\\n<div style="padding: 0 0 0 120px; position: relative">\\n    <a href=" \', escape=False)\nresponse.write(news_vars[\'link\'])\nresponse.write(\' " style="color:green; font-family:verdana; font-size:130%">\\n    <img alt="" border="1" height="100" width="100" src=" \', escape=False)\nresponse.write(news_vars[\'image\'])\nresponse.write(\' " style="left: 0; position: absolute; top: 0">\\n         \', escape=False)\nresponse.write(news_vars[\'news_title\'])\nresponse.write(\'\\n    </a>\\n</div>\\n<br><br><br><br><br><br>\\n    \\n\', escape=False)\nout = \'<form action="\' + URL(\'default\',\'blog\',vars= dict(news_vars)) + \'" method="post">What do you think?<br>\' + \\\n\'<textarea name="blog" maxlength=140 style="width: 600px; height: 50px;"></textarea><br><input type="submit" value="Post"></form><br>\'\nfor row in row_list:\n    out += (\'<div class="post"><h4 class="title">\' + row[\'auth_user\'][\'first_name\'] + \' \' + row[\'auth_user\'][\'last_name\'] + \'</h4><div class="entry"><p style="font-size:20px">\')\n    out += row[\'posts\'][\'body\']\n    out += \'</p>\'\n    out += \'<span id="votes">{{=posts.upvotes\n    response.write(\' \', escape=False)\n    response.write(posts.downvotes)\n    response.write(\'</span>\\\' + \\\\\\n              \\\'<button id="plus" onclick="ajax(\\\\\\\'\\\' + URL(\\\'vote\\\',args=(news.id,\\\'plus\\\')) + \\\'\\\\\\\',[],\\\\\\\':eval\\\\\\\')">plus</button>\\\' + \\\\\\n              \\\'<button id="minus" onclick="ajax(\\\\\\\'\\\' + URL(\\\'vote\\\',args=(news.id,\\\'minus\\\')) + \\\'\\\\\\\',[],\\\\\\\':eval\\\\\\\')">minus</button>\\\'\\n       \\n       out += \\\'</div><div class="meta"><p class="links">\\\'\\nout += \\\'&nbsp;&nbsp;&nbsp;&nbsp;<a href="#/" class="view_comments" onclick="$( \\\\\\\'.comments_\\\' + str(row[\\\'posts\\\'][\\\'id\\\'])+ \\\'\\\\\\\' ).toggle();">View Comments</a></p></div></div>\\\'\\n       \\n       out += \\\'<div class="comments_\\\' + str(row[\\\'posts\\\'][\\\'id\\\'])+ \\\'\\\\" style="display: none">\\\'\\n       out += str(LOAD(\\\'default\\\',\\\'comments.load\\\',ajax_trap=True,vars={\\\'post_id\\\':row[\\\'posts\\\'][\\\'id\\\']}))\\n       out += \\\'</div>\\\'\\n   pass\\n}}\\n\', escape=False)\n    response.write(XML(out))\n    response.write(\'\\n\', escape=False)\n    response.write(\'\\n   </div>\\n   <!-- end content -->\\n   <!-- start sidebar -->\\n   \', escape=False)\n    if sidebar_enabled:\n        response.write(\'\\n   <div id="sidebar">\\n    <ul>\\n     <li>\\n      <h2>\\n       <strong>\\n        \', escape=False)\n        response.write(T("Trending"))\n        response.write(\'\\n       </strong>\\n      </h2>\\n      <ul style="list-style: none;">\\n          \', escape=False)\n        out = \'\'\n        for row in row_list:\n            out += \'<li><div style="padding: 0 0 0 100px; position: relative"><a href="#" onClick="jQuery(\\\'.flash\\\').html(\\\'Sign in to view or participate in discussion!\\\').slideDown().delay(1000).fadeOut()" style="color:green; font-family:verdana; font-size:100%">\'\n            out += (\'<img alt="" border="1" height="80" width="80" src="\' + row[\'image_link\'] +  \'" style="left: 0; position: absolute; top: 0">\')\n            out += (\'     \' + row[\'title\'])\n            out += \'</a></div></li><br><br>\'\n            pass\n        response.write(\'\\n          \', escape=False)\n        response.write(XML(out))\n        response.write(\'\\n      </ul>\\n     </li>\\n    </ul>\\n   </div>\\n   \', escape=False)\n        pass\n    response.write(\'\\n   <!-- end sidebar -->\\n   <div style="clear: both;">\\n    &nbsp;\\n   </div>\\n  </div>\\n  <!-- end page -->\\n  <!-- start footer -->\\n  <div id="footer">\\n   <div id="footer-menu">\\n    <ul>\\n     <li class="active">\\n      <a href="#">\\n       homepage\\n      </a>\\n     </li>\\n     <li>\\n      <a href="#">\\n       photo gallery\\n      </a>\\n     </li>\\n     <li>\\n      <a href="#">\\n       about us\\n      </a>\\n     </li>\\n     <li>\\n      <a href="#">\\n       links\\n      </a>\\n     </li>\\n     <li>\\n      <a href="#">\\n       contact us\\n      </a>\\n     </li>\\n    </ul>\\n   </div>\\n   <p id="legal">\\n    (c) 2015 NameNotDecided. Design by\\n    <a href="http://www.freecsstemplates.org/">\\n     Free CSS Templates\\n    </a>\\n    .\\n   </p>\\n  </div>\\n  <!-- end footer -->\\n </body>\\n</html>\\n\', escape=False)'
p7
sS'snapshot'
p8
(dp9
S'exception'
p10
(dp11
S'__module__'
p12
S"'gluon.rocket'"
p13
sS'__getslice__'
p14
S"<method-wrapper '__getslice__' of SocketTimeout object>"
p15
sS'__str__'
p16
S"<method-wrapper '__str__' of SocketTimeout object>"
p17
sS'__reduce__'
p18
S'<built-in method __reduce__ of SocketTimeout object>'
p19
sS'__dict__'
p20
S'{}'
p21
sS'__sizeof__'
p22
S'<built-in method __sizeof__ of SocketTimeout object>'
p23
sS'__weakref__'
p24
S'None'
p25
sS'__init__'
p26
S"<method-wrapper '__init__' of SocketTimeout object>"
p27
sS'__setattr__'
p28
S"<method-wrapper '__setattr__' of SocketTimeout object>"
p29
sS'__reduce_ex__'
p30
S'<built-in method __reduce_ex__ of SocketTimeout object>'
p31
sS'__new__'
p32
S'<built-in method __new__ of type object>'
p33
sS'__format__'
p34
S'<built-in method __format__ of SocketTimeout object>'
p35
sS'__class__'
p36
S"<class 'gluon.rocket.SocketTimeout'>"
p37
sS'__doc__'
p38
S"'Exception for when a socket times out between requests.'"
p39
sS'__getitem__'
p40
S"<method-wrapper '__getitem__' of SocketTimeout object>"
p41
sS'__setstate__'
p42
S'<built-in method __setstate__ of SocketTimeout object>'
p43
sS'__getattribute__'
p44
S"<method-wrapper '__getattribute__' of SocketTimeout object>"
p45
sS'args'
p46
S"('Socket timed out before request.',)"
p47
sS'__subclasshook__'
p48
S'<built-in method __subclasshook__ of type object>'
p49
sS'__unicode__'
p50
S'<built-in method __unicode__ of SocketTimeout object>'
p51
sS'__delattr__'
p52
S"<method-wrapper '__delattr__' of SocketTimeout object>"
p53
sS'__repr__'
p54
S"<method-wrapper '__repr__' of SocketTimeout object>"
p55
sS'__hash__'
p56
S"<method-wrapper '__hash__' of SocketTimeout object>"
p57
ssS'evalue'
p58
S'Socket timed out before request.'
p59
sS'frames'
p60
(lp61
(dp62
S'file'
p63
S'/home/ritvik/DatabasesLab/microblogging/web2py/gluon/rocket.py'
p64
sS'dump'
p65
(dp66
S'self'
p67
S'<WSGIWorker(Thread-9, started daemon 140529895458560)>'
p68
sS'conn'
p69
S'<gluon.rocket.Connection object>'
p70
sS'self.run_app'
p71
S'<bound method WSGIWorker.run_app of <WSGIWorker(Thread-9, started daemon 140529895458560)>>'
p72
ssS'lnum'
p73
I1337
sS'lines'
p74
(dp75
I1332
S'            # Enter connection serve loop'
p76
sI1333
S'            while True:'
p77
sI1334
S'                if __debug__:'
p78
sI1335
S"                    self.err_log.debug('Serving a request')"
p79
sI1336
S'                try:'
p80
sI1337
S'                    self.run_app(conn)'
p81
sI1338
S'                except:'
p82
sI1339
S'                    exc = sys.exc_info()'
p83
sI1340
S'                    handled = self._handleError(*exc)'
p84
sI1341
S'                    if handled:'
p85
ssS'call'
p86
S'(self=<WSGIWorker(Thread-9, started daemon 140529895458560)>)'
p87
sS'func'
p88
S'run'
p89
sa(dp90
g63
S'/home/ritvik/DatabasesLab/microblogging/web2py/gluon/rocket.py'
p91
sg65
(dp92
S'self'
p93
S'<WSGIWorker(Thread-9, started daemon 140529895458560)>'
p94
sS'self.environ'
p95
S"{'HTTP_ACCEPT': 'text/html,application/xhtml+xml,application/xml;q=0.9,image/webp,*/*;q=0.8', 'HTTP_ACCEPT_ENCODING': 'gzip, deflate, sdch', 'HTTP_ACCEPT_LANGUAGE': 'en-GB,en-US;q=0.8,en;q=0.6', 'HTTP_CONNECTION': 'keep-alive', 'HTTP_COOKIE': 'session_id_examples=True; session_id_welcome=127...nt=127.0.0.1-dc0adb0c-712a-4939-902c-76335f49f21a', 'HTTP_HOST': '127.0.0.1:8000', 'HTTP_REFERER': 'http://127.0.0.1:8000/Assignment/default/', 'HTTP_USER_AGENT': 'Mozilla/5.0 (X11; Linux x86_64) AppleWebKit/537....L, like Gecko) Chrome/41.0.2272.101 Safari/537.36', 'PATH_INFO': '/Assignment/default/feed', 'QUERY_STRING': 'id=124&image=http%3A%2F%2Ft3.gstatic.com%2Fimage...ome+for+NHs+in+Bihar%2C+asks+Nitish+-+NewsHub.org', ...}"
p96
sS'sock_file'
p97
S'<socket._fileobject object>'
p98
sS'environ'
p99
S'undefined'
p100
sS'self.build_environ'
p101
S'<bound method WSGIWorker.build_environ of <WSGIWorker(Thread-9, started daemon 140529895458560)>>'
p102
sS'conn'
p103
S'<gluon.rocket.Connection object>'
p104
ssg73
I1830
sg74
(dp105
I1825
S'        else:'
p106
sI1826
S'            sock_file = conn.makefile(BUF_SIZE)'
p107
sI1827
S''
sI1828
S'        try:'
p108
sI1829
S'            # Read the headers and build our WSGI environment'
p109
sI1830
S'            self.environ = environ = self.build_environ(sock_file, conn)'
p110
sI1831
S''
sI1832
S'            # Handle 100 Continue'
p111
sI1833
S"            if environ.get('HTTP_EXPECT', '') == '100-continue':"
p112
sI1834
S"                res = environ['SERVER_PROTOCOL'] + ' 100 Continue\\r\\n\\r\\n'"
p113
ssg86
S'(self=<WSGIWorker(Thread-9, started daemon 140529895458560)>, conn=<gluon.rocket.Connection object>)'
p114
sg88
S'run_app'
p115
sa(dp116
g63
S'/home/ritvik/DatabasesLab/microblogging/web2py/gluon/rocket.py'
p117
sg65
(dp118
S'sock_file'
p119
S'<socket._fileobject object>'
p120
sS'self.read_request_line'
p121
S'<bound method WSGIWorker.read_request_line of <W...orker(Thread-9, started daemon 140529895458560)>>'
p122
sS'self'
p123
S'<WSGIWorker(Thread-9, started daemon 140529895458560)>'
p124
sS'request'
p125
g100
ssg73
I1650
sg74
(dp126
I1645
S'                                      "wsgiorg.futures": executor.futures})'
p127
sI1646
S''
sI1647
S'    def build_environ(self, sock_file, conn):'
p128
sI1648
S'        """ Build the execution environment. """'
p129
sI1649
S'        # Grab the request line'
p130
sI1650
S'        request = self.read_request_line(sock_file)'
p131
sI1651
S''
sI1652
S'        # Copy the Base Environment'
p132
sI1653
S'        environ = self.base_environ.copy()'
p133
sI1654
S''
ssg86
S'(self=<WSGIWorker(Thread-9, started daemon 140529895458560)>, sock_file=<socket._fileobject object>, conn=<gluon.rocket.Connection object>)'
p134
sg88
S'build_environ'
p135
sa(dp136
g63
S'/home/ritvik/DatabasesLab/microblogging/web2py/gluon/rocket.py'
p137
sg65
(dp138
S'global SocketTimeout'
p139
S"<class 'gluon.rocket.SocketTimeout'>"
p140
ssg73
I1401
sg74
(dp141
I1396
S''
sI1397
S'                d = sock_file.readline()'
p142
sI1398
S'                if PY3K:'
p143
sI1399
S"                    d = d.decode('ISO-8859-1')"
p144
sI1400
S'        except socket.timeout:'
p145
sI1401
S"            raise SocketTimeout('Socket timed out before request.')"
p146
sI1402
S'        except TypeError:'
p147
sI1403
S'            raise SocketClosed('
p148
sI1404
S"                'SSL bug caused closure of socket.  See '"
p149
sI1405
S'                \'"https://groups.google.com/d/topic/web2py/P_Gw0JxWzCs".\')'
p150
ssg86
S'(self=<WSGIWorker(Thread-9, started daemon 140529895458560)>, sock_file=<socket._fileobject object>)'
p151
sg88
S'read_request_line'
p152
sasS'pyver'
p153
S'Python 2.7.6: /usr/bin/python (prefix: /usr)'
p154
sS'etype'
p155
S"<class 'gluon.rocket.SocketTimeout'>"
p156
sS'date'
p157
S'Sun Apr  5 04:55:42 2015'
p158
sS'locals'
p159
(dp160
S'sock_file'
p161
S'<socket._fileobject object>'
p162
sS'self'
p163
S'<WSGIWorker(Thread-9, started daemon 140529895458560)>'
p164
sssS'traceback'
p165
S'Traceback (most recent call last):\n  File "/home/ritvik/DatabasesLab/microblogging/web2py/gluon/rocket.py", line 1337, in run\n    self.run_app(conn)\n  File "/home/ritvik/DatabasesLab/microblogging/web2py/gluon/rocket.py", line 1830, in run_app\n    self.environ = environ = self.build_environ(sock_file, conn)\n  File "/home/ritvik/DatabasesLab/microblogging/web2py/gluon/rocket.py", line 1650, in build_environ\n    request = self.read_request_line(sock_file)\n  File "/home/ritvik/DatabasesLab/microblogging/web2py/gluon/rocket.py", line 1401, in read_request_line\n    raise SocketTimeout(\'Socket timed out before request.\')\nSocketTimeout: Socket timed out before request.\n'
p166
s.